
cv1.elf:     file format elf32-avr

Sections:
Idx Name          Size      VMA       LMA       File off  Algn
  0 .data         00000034  00800100  00001ab6  00001b4a  2**0
                  CONTENTS, ALLOC, LOAD, DATA
  1 .text         00001ab6  00000000  00000000  00000094  2**1
                  CONTENTS, ALLOC, LOAD, READONLY, CODE
  2 .bss          0000047e  00800134  00800134  00001b7e  2**0
                  ALLOC
  3 .comment      00000030  00000000  00000000  00001b7e  2**0
                  CONTENTS, READONLY
  4 .note.gnu.avr.deviceinfo 00000040  00000000  00000000  00001bb0  2**2
                  CONTENTS, READONLY
  5 .debug_aranges 000001c0  00000000  00000000  00001bf0  2**0
                  CONTENTS, READONLY, DEBUGGING
  6 .debug_info   00001e6b  00000000  00000000  00001db0  2**0
                  CONTENTS, READONLY, DEBUGGING
  7 .debug_abbrev 00000bb1  00000000  00000000  00003c1b  2**0
                  CONTENTS, READONLY, DEBUGGING
  8 .debug_line   000010a9  00000000  00000000  000047cc  2**0
                  CONTENTS, READONLY, DEBUGGING
  9 .debug_frame  0000047c  00000000  00000000  00005878  2**2
                  CONTENTS, READONLY, DEBUGGING
 10 .debug_str    0000073e  00000000  00000000  00005cf4  2**0
                  CONTENTS, READONLY, DEBUGGING
 11 .debug_loc    00001070  00000000  00000000  00006432  2**0
                  CONTENTS, READONLY, DEBUGGING
 12 .debug_ranges 00000198  00000000  00000000  000074a2  2**0
                  CONTENTS, READONLY, DEBUGGING

Disassembly of section .text:

00000000 <__vectors>:
       0:	0c 94 04 09 	jmp	0x1208	; 0x1208 <__ctors_end>
       4:	0c 94 21 09 	jmp	0x1242	; 0x1242 <__bad_interrupt>
       8:	0c 94 21 09 	jmp	0x1242	; 0x1242 <__bad_interrupt>
       c:	0c 94 21 09 	jmp	0x1242	; 0x1242 <__bad_interrupt>
      10:	0c 94 21 09 	jmp	0x1242	; 0x1242 <__bad_interrupt>
      14:	0c 94 21 09 	jmp	0x1242	; 0x1242 <__bad_interrupt>
      18:	0c 94 21 09 	jmp	0x1242	; 0x1242 <__bad_interrupt>
      1c:	0c 94 21 09 	jmp	0x1242	; 0x1242 <__bad_interrupt>
      20:	0c 94 21 09 	jmp	0x1242	; 0x1242 <__bad_interrupt>
      24:	0c 94 21 09 	jmp	0x1242	; 0x1242 <__bad_interrupt>
      28:	0c 94 21 09 	jmp	0x1242	; 0x1242 <__bad_interrupt>
      2c:	0c 94 21 09 	jmp	0x1242	; 0x1242 <__bad_interrupt>
      30:	0c 94 21 09 	jmp	0x1242	; 0x1242 <__bad_interrupt>
      34:	0c 94 21 09 	jmp	0x1242	; 0x1242 <__bad_interrupt>
      38:	0c 94 22 0b 	jmp	0x1644	; 0x1644 <__vector_14>
      3c:	0c 94 21 09 	jmp	0x1242	; 0x1242 <__bad_interrupt>
      40:	0c 94 21 09 	jmp	0x1242	; 0x1242 <__bad_interrupt>
      44:	0c 94 21 09 	jmp	0x1242	; 0x1242 <__bad_interrupt>
      48:	0c 94 ed 0a 	jmp	0x15da	; 0x15da <__vector_18>
      4c:	0c 94 21 09 	jmp	0x1242	; 0x1242 <__bad_interrupt>
      50:	0c 94 21 09 	jmp	0x1242	; 0x1242 <__bad_interrupt>
      54:	0c 94 21 09 	jmp	0x1242	; 0x1242 <__bad_interrupt>
      58:	0c 94 21 09 	jmp	0x1242	; 0x1242 <__bad_interrupt>
      5c:	0c 94 21 09 	jmp	0x1242	; 0x1242 <__bad_interrupt>
      60:	0c 94 21 09 	jmp	0x1242	; 0x1242 <__bad_interrupt>
      64:	0c 94 21 09 	jmp	0x1242	; 0x1242 <__bad_interrupt>

00000068 <__trampolines_end>:
	...
      70:	00 80       	ld	r0, Z
      72:	c0 e0       	ldi	r28, 0x00	; 0
      74:	f0 f0       	brcs	.+60     	; 0xb2 <__trampolines_end+0x4a>
      76:	f8 f8       	.word	0xf8f8	; ????
      78:	f8 fc       	.word	0xfcf8	; ????
      7a:	fc fc       	.word	0xfcfc	; ????
      7c:	fc fc       	.word	0xfcfc	; ????
      7e:	fc fc       	.word	0xfcfc	; ????
      80:	fc fc       	.word	0xfcfc	; ????
      82:	fc f8       	.word	0xf8fc	; ????
      84:	f8 f8       	.word	0xf8f8	; ????
      86:	f0 f0       	brcs	.+60     	; 0xc4 <__trampolines_end+0x5c>
      88:	e0 c0       	rjmp	.+448    	; 0x24a <__trampolines_end+0x1e2>
      8a:	80 00       	.word	0x0080	; ????
	...
      94:	00 00       	nop
      96:	00 e0       	ldi	r16, 0x00	; 0
      98:	f8 fe       	.word	0xfef8	; ????
      9a:	ff ff       	.word	0xffff	; ????
      9c:	ff ff       	.word	0xffff	; ????
      9e:	ff ff       	.word	0xffff	; ????
      a0:	ff 7f       	andi	r31, 0xFF	; 255
      a2:	1f 0f       	add	r17, r31
      a4:	0f 07       	cpc	r16, r31
      a6:	07 07       	cpc	r16, r23
      a8:	07 07       	cpc	r16, r23
      aa:	07 0f       	add	r16, r23
      ac:	0f 1f       	adc	r16, r31
      ae:	7f ff       	.word	0xff7f	; ????
      b0:	ff ff       	.word	0xffff	; ????
      b2:	ff ff       	.word	0xffff	; ????
      b4:	ff ff       	.word	0xffff	; ????
      b6:	fe f8       	.word	0xf8fe	; ????
      b8:	e0 00       	.word	0x00e0	; ????
      ba:	00 00       	nop
      bc:	00 00       	nop
      be:	00 00       	nop
      c0:	ff ff       	.word	0xffff	; ????
      c2:	ff ff       	.word	0xffff	; ????
      c4:	ff ff       	.word	0xffff	; ????
      c6:	ff ff       	.word	0xffff	; ????
      c8:	ff ff       	.word	0xffff	; ????
      ca:	1f 00       	.word	0x001f	; ????
	...
      d8:	80 8f       	std	Z+24, r24	; 0x18
      da:	ff ff       	.word	0xffff	; ????
      dc:	ff ff       	.word	0xffff	; ????
      de:	ff ff       	.word	0xffff	; ????
      e0:	ff ff       	.word	0xffff	; ????
      e2:	ff ff       	.word	0xffff	; ????
      e4:	80 00       	.word	0x0080	; ????
      e6:	00 00       	nop
      e8:	00 00       	nop
      ea:	ff ff       	.word	0xffff	; ????
      ec:	ff ff       	.word	0xffff	; ????
      ee:	ff ff       	.word	0xffff	; ????
      f0:	ff ff       	.word	0xffff	; ????
      f2:	ff ff       	.word	0xffff	; ????
      f4:	00 00       	nop
      f6:	00 00       	nop
      f8:	80 c0       	rjmp	.+256    	; 0x1fa <__trampolines_end+0x192>
      fa:	e0 e0       	ldi	r30, 0x00	; 0
      fc:	f0 f8       	bld	r15, 0
      fe:	fc fc       	.word	0xfcfc	; ????
     100:	fe ff       	.word	0xfffe	; ????
     102:	7f 3f       	cpi	r23, 0xFF	; 255
     104:	ff ff       	.word	0xffff	; ????
     106:	ff ff       	.word	0xffff	; ????
     108:	ff ff       	.word	0xffff	; ????
     10a:	ff ff       	.word	0xffff	; ????
     10c:	ff ff       	.word	0xffff	; ????
     10e:	ff 00       	.word	0x00ff	; ????
     110:	00 00       	nop
     112:	00 00       	nop
     114:	ff ff       	.word	0xffff	; ????
     116:	ff ff       	.word	0xffff	; ????
     118:	ff ff       	.word	0xffff	; ????
     11a:	ff ff       	.word	0xffff	; ????
     11c:	ff ff       	.word	0xffff	; ????
     11e:	fc fe       	.word	0xfefc	; ????
     120:	ff 7f       	andi	r31, 0xFF	; 255
     122:	3f 1f       	adc	r19, r31
     124:	1f 0f       	add	r17, r31
     126:	07 07       	cpc	r16, r23
     128:	03 01       	movw	r0, r6
     12a:	00 00       	nop
     12c:	00 00       	nop
     12e:	ff ff       	.word	0xffff	; ????
     130:	ff ff       	.word	0xffff	; ????
     132:	ff ff       	.word	0xffff	; ????
     134:	ff ff       	.word	0xffff	; ????
     136:	ff ff       	.word	0xffff	; ????
     138:	ff 00       	.word	0x00ff	; ????
     13a:	00 00       	nop
     13c:	00 00       	nop
     13e:	7f ff       	.word	0xff7f	; ????
     140:	ff ff       	.word	0xffff	; ????
     142:	ff ff       	.word	0xffff	; ????
     144:	ff ff       	.word	0xffff	; ????
     146:	ff ff       	.word	0xffff	; ????
     148:	fd 00       	.word	0x00fd	; ????
	...
     156:	00 f8       	bld	r0, 0
     158:	ff ff       	.word	0xffff	; ????
     15a:	ff ff       	.word	0xffff	; ????
     15c:	ff ff       	.word	0xffff	; ????
     15e:	ff ff       	.word	0xffff	; ????
     160:	ff 7f       	andi	r31, 0xFF	; 255
     162:	00 00       	nop
     164:	00 00       	nop
     166:	00 00       	nop
     168:	00 03       	mulsu	r16, r16
     16a:	0f 3f       	cpi	r16, 0xFF	; 255
     16c:	7f ff       	.word	0xff7f	; ????
     16e:	ff ff       	.word	0xffff	; ????
     170:	ff ff       	.word	0xffff	; ????
     172:	ff ff       	.word	0xffff	; ????
     174:	fc f8       	.word	0xf8fc	; ????
     176:	f8 f0       	brcs	.+62     	; 0x1b6 <__trampolines_end+0x14e>
     178:	f0 f0       	brcs	.+60     	; 0x1b6 <__trampolines_end+0x14e>
     17a:	f0 f0       	brcs	.+60     	; 0x1b8 <__trampolines_end+0x150>
     17c:	f0 f8       	bld	r15, 0
     17e:	f8 fc       	.word	0xfcf8	; ????
     180:	ff ff       	.word	0xffff	; ????
     182:	ff ff       	.word	0xffff	; ????
     184:	ff ff       	.word	0xffff	; ????
     186:	ff 7f       	andi	r31, 0xFF	; 255
     188:	3f 0f       	add	r19, r31
     18a:	03 00       	.word	0x0003	; ????
	...
     198:	01 03       	mulsu	r16, r17
     19a:	07 07       	cpc	r16, r23
     19c:	0f 0f       	add	r16, r31
     19e:	0f 1f       	adc	r16, r31
     1a0:	1f 1f       	adc	r17, r31
     1a2:	1f 1f       	adc	r17, r31
     1a4:	1f 1f       	adc	r17, r31
     1a6:	1f 1f       	adc	r17, r31
     1a8:	1f 0f       	add	r17, r31
     1aa:	0f 0f       	add	r16, r31
     1ac:	07 07       	cpc	r16, r23
     1ae:	03 01       	movw	r0, r6
	...
     1c8:	00 00       	nop
     1ca:	80 80       	ld	r8, Z
     1cc:	c0 c0       	rjmp	.+384    	; 0x34e <__trampolines_end+0x2e6>
     1ce:	c0 e0       	ldi	r28, 0x00	; 0
     1d0:	e0 e0       	ldi	r30, 0x00	; 0
     1d2:	f0 f0       	brcs	.+60     	; 0x210 <__trampolines_end+0x1a8>
     1d4:	f0 f8       	bld	r15, 0
	...
     1e6:	00 f0       	brcs	.+0      	; 0x1e8 <__trampolines_end+0x180>
     1e8:	f8 f8       	.word	0xf8f8	; ????
     1ea:	f8 fc       	.word	0xfcf8	; ????
     1ec:	fc fc       	.word	0xfcfc	; ????
     1ee:	fe fe       	.word	0xfefe	; ????
     1f0:	fe ff       	.word	0xfffe	; ????
     1f2:	ff ff       	.word	0xffff	; ????
     1f4:	ff ff       	.word	0xffff	; ????
     1f6:	ff ff       	.word	0xffff	; ????
     1f8:	ff ff       	.word	0xffff	; ????
     1fa:	ff ff       	.word	0xffff	; ????
     1fc:	ff ff       	.word	0xffff	; ????
     1fe:	ff ff       	.word	0xffff	; ????
	...
     210:	00 3f       	cpi	r16, 0xF0	; 240
     212:	1f 1f       	adc	r17, r31
     214:	0f 0f       	add	r16, r31
     216:	07 07       	cpc	r16, r23
     218:	07 03       	mulsu	r16, r23
     21a:	03 03       	mulsu	r16, r19
     21c:	01 01       	movw	r0, r2
     21e:	01 ff       	sbrs	r16, 1
     220:	ff ff       	.word	0xffff	; ????
     222:	ff ff       	.word	0xffff	; ????
     224:	ff ff       	.word	0xffff	; ????
     226:	ff ff       	.word	0xffff	; ????
     228:	ff ff       	.word	0xffff	; ????
	...
     246:	00 00       	nop
     248:	00 ff       	sbrs	r16, 0
     24a:	ff ff       	.word	0xffff	; ????
     24c:	ff ff       	.word	0xffff	; ????
     24e:	ff ff       	.word	0xffff	; ????
     250:	ff ff       	.word	0xffff	; ????
     252:	ff ff       	.word	0xffff	; ????
	...
     270:	00 00       	nop
     272:	00 ff       	sbrs	r16, 0
     274:	ff ff       	.word	0xffff	; ????
     276:	ff ff       	.word	0xffff	; ????
     278:	ff ff       	.word	0xffff	; ????
     27a:	ff ff       	.word	0xffff	; ????
     27c:	ff ff       	.word	0xffff	; ????
	...
     29a:	00 00       	nop
     29c:	00 ff       	sbrs	r16, 0
     29e:	ff ff       	.word	0xffff	; ????
     2a0:	ff ff       	.word	0xffff	; ????
     2a2:	ff ff       	.word	0xffff	; ????
     2a4:	ff ff       	.word	0xffff	; ????
     2a6:	ff ff       	.word	0xffff	; ????
	...
     2c4:	00 00       	nop
     2c6:	00 ff       	sbrs	r16, 0
     2c8:	ff ff       	.word	0xffff	; ????
     2ca:	ff ff       	.word	0xffff	; ????
     2cc:	ff ff       	.word	0xffff	; ????
     2ce:	ff ff       	.word	0xffff	; ????
     2d0:	ff ff       	.word	0xffff	; ????
	...
     2ee:	00 00       	nop
     2f0:	00 0f       	add	r16, r16
     2f2:	0f 0f       	add	r16, r31
     2f4:	0f 0f       	add	r16, r31
     2f6:	0f 0f       	add	r16, r31
     2f8:	0f 0f       	add	r16, r31
     2fa:	0f 0f       	add	r16, r31
	...
     30c:	00 00       	nop
     30e:	80 c0       	rjmp	.+256    	; 0x410 <__LOCK_REGION_LENGTH__+0x10>
     310:	c0 e0       	ldi	r28, 0x00	; 0
     312:	f0 f0       	brcs	.+60     	; 0x350 <__trampolines_end+0x2e8>
     314:	f0 f8       	bld	r15, 0
     316:	f8 f8       	.word	0xf8f8	; ????
     318:	fc fc       	.word	0xfcfc	; ????
     31a:	fc fc       	.word	0xfcfc	; ????
     31c:	fc fc       	.word	0xfcfc	; ????
     31e:	fc fc       	.word	0xfcfc	; ????
     320:	fc fc       	.word	0xfcfc	; ????
     322:	f8 f8       	.word	0xf8f8	; ????
     324:	f8 f0       	brcs	.+62     	; 0x364 <__trampolines_end+0x2fc>
     326:	f0 e0       	ldi	r31, 0x00	; 0
     328:	e0 c0       	rjmp	.+448    	; 0x4ea <__LOCK_REGION_LENGTH__+0xea>
     32a:	80 00       	.word	0x0080	; ????
     32c:	00 00       	nop
     32e:	00 00       	nop
     330:	00 00       	nop
     332:	00 80       	ld	r0, Z
     334:	e0 f8       	bld	r14, 0
     336:	fe ff       	.word	0xfffe	; ????
     338:	ff ff       	.word	0xffff	; ????
     33a:	ff ff       	.word	0xffff	; ????
     33c:	ff ff       	.word	0xffff	; ????
     33e:	7f 3f       	cpi	r23, 0xFF	; 255
     340:	1f 0f       	add	r17, r31
     342:	07 07       	cpc	r16, r23
     344:	07 07       	cpc	r16, r23
     346:	07 07       	cpc	r16, r23
     348:	07 07       	cpc	r16, r23
     34a:	0f 0f       	add	r16, r31
     34c:	3f 7f       	andi	r19, 0xFF	; 255
     34e:	ff ff       	.word	0xffff	; ????
     350:	ff ff       	.word	0xffff	; ????
     352:	ff ff       	.word	0xffff	; ????
     354:	ff ff       	.word	0xffff	; ????
     356:	fc f0       	brlt	.+62     	; 0x396 <__trampolines_end+0x32e>
     358:	80 00       	.word	0x0080	; ????
     35a:	00 00       	nop
     35c:	00 0f       	add	r16, r16
     35e:	0f 0f       	add	r16, r31
     360:	0f 0f       	add	r16, r31
     362:	0f 0f       	add	r16, r31
     364:	0f 0f       	add	r16, r31
     366:	0f 0f       	add	r16, r31
	...
     374:	00 00       	nop
     376:	00 c0       	rjmp	.+0      	; 0x378 <__trampolines_end+0x310>
     378:	ff ff       	.word	0xffff	; ????
     37a:	ff ff       	.word	0xffff	; ????
     37c:	ff ff       	.word	0xffff	; ????
     37e:	ff ff       	.word	0xffff	; ????
     380:	ff ff       	.word	0xffff	; ????
     382:	3f 00       	.word	0x003f	; ????
	...
     398:	00 00       	nop
     39a:	00 80       	ld	r0, Z
     39c:	c0 e0       	ldi	r28, 0x00	; 0
     39e:	f8 fc       	.word	0xfcf8	; ????
     3a0:	ff ff       	.word	0xffff	; ????
     3a2:	ff ff       	.word	0xffff	; ????
     3a4:	ff ff       	.word	0xffff	; ????
     3a6:	ff ff       	.word	0xffff	; ????
     3a8:	7f 1f       	adc	r23, r31
     3aa:	07 01       	movw	r0, r14
	...
     3bc:	00 00       	nop
     3be:	80 c0       	rjmp	.+256    	; 0x4c0 <__LOCK_REGION_LENGTH__+0xc0>
     3c0:	e0 f0       	brcs	.+56     	; 0x3fa <__trampolines_end+0x392>
     3c2:	fc fe       	.word	0xfefc	; ????
     3c4:	ff ff       	.word	0xffff	; ????
     3c6:	ff ff       	.word	0xffff	; ????
     3c8:	ff ff       	.word	0xffff	; ????
     3ca:	ff 7f       	andi	r31, 0xFF	; 255
     3cc:	3f 1f       	adc	r19, r31
     3ce:	07 03       	mulsu	r16, r23
     3d0:	01 00       	.word	0x0001	; ????
	...
     3de:	00 00       	nop
     3e0:	00 c0       	rjmp	.+0      	; 0x3e2 <__trampolines_end+0x37a>
     3e2:	e0 f0       	brcs	.+56     	; 0x41c <__LOCK_REGION_LENGTH__+0x1c>
     3e4:	f8 fc       	.word	0xfcf8	; ????
     3e6:	fe ff       	.word	0xfffe	; ????
     3e8:	ff ff       	.word	0xffff	; ????
     3ea:	ff ff       	.word	0xffff	; ????
     3ec:	ff 7f       	andi	r31, 0xFF	; 255
     3ee:	3f 1f       	adc	r19, r31
     3f0:	0f 07       	cpc	r16, r31
     3f2:	03 01       	movw	r0, r6
	...
     404:	00 00       	nop
     406:	f0 f8       	bld	r15, 0
     408:	fc fe       	.word	0xfefc	; ????
     40a:	ff ff       	.word	0xffff	; ????
     40c:	ff ff       	.word	0xffff	; ????
     40e:	ff ff       	.word	0xffff	; ????
     410:	ff ff       	.word	0xffff	; ????
     412:	ff ff       	.word	0xffff	; ????
     414:	fb f9       	.word	0xf9fb	; ????
     416:	f8 f8       	.word	0xf8f8	; ????
     418:	f8 f8       	.word	0xf8f8	; ????
     41a:	f8 f8       	.word	0xf8f8	; ????
     41c:	f8 f8       	.word	0xf8f8	; ????
     41e:	f8 f8       	.word	0xf8f8	; ????
     420:	f8 f8       	.word	0xf8f8	; ????
     422:	f8 f8       	.word	0xf8f8	; ????
     424:	f8 f8       	.word	0xf8f8	; ????
     426:	f8 f8       	.word	0xf8f8	; ????
     428:	f8 f8       	.word	0xf8f8	; ????
     42a:	f8 f8       	.word	0xf8f8	; ????
     42c:	f8 00       	.word	0x00f8	; ????
     42e:	00 00       	nop
     430:	0f 0f       	add	r16, r31
     432:	0f 0f       	add	r16, r31
     434:	0f 0f       	add	r16, r31
     436:	0f 0f       	add	r16, r31
     438:	0f 0f       	add	r16, r31
     43a:	0f 0f       	add	r16, r31
     43c:	0f 0f       	add	r16, r31
     43e:	0f 0f       	add	r16, r31
     440:	0f 0f       	add	r16, r31
     442:	0f 0f       	add	r16, r31
     444:	0f 0f       	add	r16, r31
     446:	0f 0f       	add	r16, r31
     448:	0f 0f       	add	r16, r31
     44a:	0f 0f       	add	r16, r31
     44c:	0f 0f       	add	r16, r31
     44e:	0f 0f       	add	r16, r31
     450:	0f 0f       	add	r16, r31
     452:	0f 0f       	add	r16, r31
     454:	0f 0f       	add	r16, r31
     456:	0f 00       	.word	0x000f	; ????
     458:	00 00       	nop
     45a:	00 00       	nop
     45c:	00 00       	nop
     45e:	00 80       	ld	r0, Z
     460:	c0 e0       	ldi	r28, 0x00	; 0
     462:	e0 f0       	brcs	.+56     	; 0x49c <__LOCK_REGION_LENGTH__+0x9c>
     464:	f0 f8       	bld	r15, 0
     466:	f8 f8       	.word	0xf8f8	; ????
     468:	fc fc       	.word	0xfcfc	; ????
     46a:	fc fc       	.word	0xfcfc	; ????
     46c:	fc fc       	.word	0xfcfc	; ????
     46e:	fc fc       	.word	0xfcfc	; ????
     470:	fc fc       	.word	0xfcfc	; ????
     472:	f8 f8       	.word	0xf8f8	; ????
     474:	f8 f8       	.word	0xf8f8	; ????
     476:	f0 f0       	brcs	.+60     	; 0x4b4 <__LOCK_REGION_LENGTH__+0xb4>
     478:	e0 e0       	ldi	r30, 0x00	; 0
     47a:	c0 80       	ld	r12, Z
	...
     484:	00 f0       	brcs	.+0      	; 0x486 <__LOCK_REGION_LENGTH__+0x86>
     486:	fc fe       	.word	0xfefc	; ????
     488:	ff ff       	.word	0xffff	; ????
     48a:	ff ff       	.word	0xffff	; ????
     48c:	ff ff       	.word	0xffff	; ????
     48e:	ff ff       	.word	0xffff	; ????
     490:	3f 1f       	adc	r19, r31
     492:	0f 07       	cpc	r16, r31
     494:	07 07       	cpc	r16, r23
     496:	07 07       	cpc	r16, r23
     498:	07 07       	cpc	r16, r23
     49a:	07 0f       	add	r16, r23
     49c:	0f 1f       	adc	r16, r31
     49e:	7f ff       	.word	0xff7f	; ????
     4a0:	ff ff       	.word	0xffff	; ????
     4a2:	ff ff       	.word	0xffff	; ????
     4a4:	ff ff       	.word	0xffff	; ????
     4a6:	ff fe       	.word	0xfeff	; ????
     4a8:	f8 c0       	rjmp	.+496    	; 0x69a <__LOCK_REGION_LENGTH__+0x29a>
     4aa:	00 00       	nop
     4ac:	00 00       	nop
     4ae:	03 03       	mulsu	r16, r19
     4b0:	03 03       	mulsu	r16, r19
     4b2:	03 03       	mulsu	r16, r19
     4b4:	03 03       	mulsu	r16, r19
     4b6:	03 03       	mulsu	r16, r19
     4b8:	03 00       	.word	0x0003	; ????
	...
     4c6:	00 00       	nop
     4c8:	c0 ff       	sbrs	r28, 0
     4ca:	ff ff       	.word	0xffff	; ????
     4cc:	ff ff       	.word	0xffff	; ????
     4ce:	ff ff       	.word	0xffff	; ????
     4d0:	ff ff       	.word	0xffff	; ????
     4d2:	ff 3f       	cpi	r31, 0xFF	; 255
	...
     4e4:	f8 f8       	.word	0xf8f8	; ????
     4e6:	f8 f8       	.word	0xf8f8	; ????
     4e8:	f8 f8       	.word	0xf8f8	; ????
     4ea:	f8 f8       	.word	0xf8f8	; ????
     4ec:	f8 f8       	.word	0xf8f8	; ????
     4ee:	fc fc       	.word	0xfcfc	; ????
     4f0:	fe ff       	.word	0xfffe	; ????
     4f2:	ff ff       	.word	0xffff	; ????
     4f4:	ff ff       	.word	0xffff	; ????
     4f6:	7f 3f       	cpi	r23, 0xFF	; 255
     4f8:	1f 1f       	adc	r17, r31
     4fa:	0f 03       	fmul	r16, r23
     4fc:	01 00       	.word	0x0001	; ????
	...
     50e:	0f 0f       	add	r16, r31
     510:	0f 0f       	add	r16, r31
     512:	0f 0f       	add	r16, r31
     514:	0f 0f       	add	r16, r31
     516:	0f 0f       	add	r16, r31
     518:	0f 1f       	adc	r16, r31
     51a:	1f 3f       	cpi	r17, 0xFF	; 255
     51c:	7f ff       	.word	0xff7f	; ????
     51e:	ff ff       	.word	0xffff	; ????
     520:	ff ff       	.word	0xffff	; ????
     522:	fe fe       	.word	0xfefe	; ????
     524:	fc f8       	.word	0xf8fc	; ????
     526:	f0 c0       	rjmp	.+480    	; 0x708 <__LOCK_REGION_LENGTH__+0x308>
     528:	00 00       	nop
     52a:	00 00       	nop
     52c:	e0 e0       	ldi	r30, 0x00	; 0
     52e:	e0 e0       	ldi	r30, 0x00	; 0
     530:	e0 e0       	ldi	r30, 0x00	; 0
     532:	e0 e0       	ldi	r30, 0x00	; 0
     534:	e0 e0       	ldi	r30, 0x00	; 0
     536:	e0 00       	.word	0x00e0	; ????
	...
     544:	00 00       	nop
     546:	00 81       	ld	r16, Z
     548:	ff ff       	.word	0xffff	; ????
     54a:	ff ff       	.word	0xffff	; ????
     54c:	ff ff       	.word	0xffff	; ????
     54e:	ff ff       	.word	0xffff	; ????
     550:	ff ff       	.word	0xffff	; ????
     552:	fe 00       	.word	0x00fe	; ????
     554:	00 00       	nop
     556:	03 0f       	add	r16, r19
     558:	3f 7f       	andi	r19, 0xFF	; 255
     55a:	ff ff       	.word	0xffff	; ????
     55c:	ff ff       	.word	0xffff	; ????
     55e:	ff ff       	.word	0xffff	; ????
     560:	ff ff       	.word	0xffff	; ????
     562:	fc f8       	.word	0xf8fc	; ????
     564:	f8 f0       	brcs	.+62     	; 0x5a4 <__LOCK_REGION_LENGTH__+0x1a4>
     566:	f0 f0       	brcs	.+60     	; 0x5a4 <__LOCK_REGION_LENGTH__+0x1a4>
     568:	f0 f0       	brcs	.+60     	; 0x5a6 <__LOCK_REGION_LENGTH__+0x1a6>
     56a:	f0 f0       	brcs	.+60     	; 0x5a8 <__LOCK_REGION_LENGTH__+0x1a8>
     56c:	f0 f8       	bld	r15, 0
     56e:	f8 fc       	.word	0xfcf8	; ????
     570:	fe ff       	.word	0xfffe	; ????
     572:	ff ff       	.word	0xffff	; ????
     574:	ff ff       	.word	0xffff	; ????
     576:	ff ff       	.word	0xffff	; ????
     578:	7f 3f       	cpi	r23, 0xFF	; 255
     57a:	1f 07       	cpc	r17, r31
	...
     584:	00 01       	movw	r0, r0
     586:	03 03       	mulsu	r16, r19
     588:	07 07       	cpc	r16, r23
     58a:	0f 0f       	add	r16, r31
     58c:	0f 0f       	add	r16, r31
     58e:	1f 1f       	adc	r17, r31
     590:	1f 1f       	adc	r17, r31
     592:	1f 1f       	adc	r17, r31
     594:	1f 1f       	adc	r17, r31
     596:	1f 1f       	adc	r17, r31
     598:	0f 0f       	add	r16, r31
     59a:	0f 0f       	add	r16, r31
     59c:	07 07       	cpc	r16, r23
     59e:	03 03       	mulsu	r16, r19
     5a0:	01 00       	.word	0x0001	; ????
	...
     5ba:	00 00       	nop
     5bc:	00 80       	ld	r0, Z
     5be:	c0 f0       	brcs	.+48     	; 0x5f0 <__LOCK_REGION_LENGTH__+0x1f0>
     5c0:	f8 f8       	.word	0xf8f8	; ????
     5c2:	f8 f8       	.word	0xf8f8	; ????
     5c4:	f8 f8       	.word	0xf8f8	; ????
     5c6:	f8 f8       	.word	0xf8f8	; ????
     5c8:	f8 f8       	.word	0xf8f8	; ????
     5ca:	f8 00       	.word	0x00f8	; ????
	...
     5e0:	00 00       	nop
     5e2:	80 c0       	rjmp	.+256    	; 0x6e4 <__LOCK_REGION_LENGTH__+0x2e4>
     5e4:	f0 f8       	bld	r15, 0
     5e6:	fe ff       	.word	0xfffe	; ????
     5e8:	ff ff       	.word	0xffff	; ????
     5ea:	ff ff       	.word	0xffff	; ????
     5ec:	ff ff       	.word	0xffff	; ????
     5ee:	ff ff       	.word	0xffff	; ????
     5f0:	ff ff       	.word	0xffff	; ????
     5f2:	ff ff       	.word	0xffff	; ????
     5f4:	ff 00       	.word	0x00ff	; ????
	...
     606:	00 80       	ld	r0, Z
     608:	c0 f0       	brcs	.+48     	; 0x63a <__LOCK_REGION_LENGTH__+0x23a>
     60a:	fc fe       	.word	0xfefc	; ????
     60c:	ff ff       	.word	0xffff	; ????
     60e:	ff ff       	.word	0xffff	; ????
     610:	ff 7f       	andi	r31, 0xFF	; 255
     612:	1f 07       	cpc	r17, r31
     614:	ff ff       	.word	0xffff	; ????
     616:	ff ff       	.word	0xffff	; ????
     618:	ff ff       	.word	0xffff	; ????
     61a:	ff ff       	.word	0xffff	; ????
     61c:	ff ff       	.word	0xffff	; ????
     61e:	ff 00       	.word	0x00ff	; ????
	...
     62c:	80 c0       	rjmp	.+256    	; 0x72e <__LOCK_REGION_LENGTH__+0x32e>
     62e:	f0 fc       	sbrc	r15, 0
     630:	fe ff       	.word	0xfffe	; ????
     632:	ff ff       	.word	0xffff	; ????
     634:	ff ff       	.word	0xffff	; ????
     636:	3f 1f       	adc	r19, r31
     638:	07 03       	mulsu	r16, r23
     63a:	00 00       	nop
     63c:	00 00       	nop
     63e:	ff ff       	.word	0xffff	; ????
     640:	ff ff       	.word	0xffff	; ????
     642:	ff ff       	.word	0xffff	; ????
     644:	ff ff       	.word	0xffff	; ????
     646:	ff ff       	.word	0xffff	; ????
     648:	ff 00       	.word	0x00ff	; ????
     64a:	00 00       	nop
     64c:	00 00       	nop
     64e:	00 00       	nop
     650:	00 80       	ld	r0, Z
     652:	c0 f0       	brcs	.+48     	; 0x684 <__LOCK_REGION_LENGTH__+0x284>
     654:	fc fe       	.word	0xfefc	; ????
     656:	ff ff       	.word	0xffff	; ????
     658:	ff ff       	.word	0xffff	; ????
     65a:	ff bf       	out	0x3f, r31	; 63
     65c:	9f 87       	std	Y+15, r25	; 0x0f
     65e:	81 80       	ldd	r8, Z+1	; 0x01
     660:	80 80       	ld	r8, Z
     662:	80 80       	ld	r8, Z
     664:	80 80       	ld	r8, Z
     666:	80 80       	ld	r8, Z
     668:	ff ff       	.word	0xffff	; ????
     66a:	ff ff       	.word	0xffff	; ????
     66c:	ff ff       	.word	0xffff	; ????
     66e:	ff ff       	.word	0xffff	; ????
     670:	ff ff       	.word	0xffff	; ????
     672:	ff 80       	ldd	r15, Y+7	; 0x07
     674:	80 80       	ld	r8, Z
     676:	80 80       	ld	r8, Z
     678:	80 80       	ld	r8, Z
     67a:	0e ff       	.word	0xff0e	; ????
     67c:	ff ff       	.word	0xffff	; ????
     67e:	ff ff       	.word	0xffff	; ????
     680:	ff ff       	.word	0xffff	; ????
     682:	ff ff       	.word	0xffff	; ????
     684:	ff ff       	.word	0xffff	; ????
     686:	ff ff       	.word	0xffff	; ????
     688:	ff ff       	.word	0xffff	; ????
     68a:	ff ff       	.word	0xffff	; ????
     68c:	ff ff       	.word	0xffff	; ????
     68e:	ff ff       	.word	0xffff	; ????
     690:	ff ff       	.word	0xffff	; ????
     692:	ff ff       	.word	0xffff	; ????
     694:	ff ff       	.word	0xffff	; ????
     696:	ff ff       	.word	0xffff	; ????
     698:	ff ff       	.word	0xffff	; ????
     69a:	ff ff       	.word	0xffff	; ????
     69c:	ff ff       	.word	0xffff	; ????
     69e:	ff ff       	.word	0xffff	; ????
     6a0:	ff ff       	.word	0xffff	; ????
     6a2:	ff ff       	.word	0xffff	; ????
	...
     6bc:	ff ff       	.word	0xffff	; ????
     6be:	ff ff       	.word	0xffff	; ????
     6c0:	ff ff       	.word	0xffff	; ????
     6c2:	ff ff       	.word	0xffff	; ????
     6c4:	ff ff       	.word	0xffff	; ????
     6c6:	ff 00       	.word	0x00ff	; ????
	...
     6e4:	00 00       	nop
     6e6:	0f 0f       	add	r16, r31
     6e8:	0f 0f       	add	r16, r31
     6ea:	0f 0f       	add	r16, r31
     6ec:	0f 0f       	add	r16, r31
     6ee:	0f 0f       	add	r16, r31
     6f0:	0f 00       	.word	0x000f	; ????
	...
     6fe:	00 f8       	bld	r0, 0
     700:	f8 f8       	.word	0xf8f8	; ????
     702:	f8 f8       	.word	0xf8f8	; ????
     704:	f8 f8       	.word	0xf8f8	; ????
     706:	f8 f8       	.word	0xf8f8	; ????
     708:	f8 f8       	.word	0xf8f8	; ????
     70a:	f8 f8       	.word	0xf8f8	; ????
     70c:	f8 f8       	.word	0xf8f8	; ????
     70e:	f8 f8       	.word	0xf8f8	; ????
     710:	f8 f8       	.word	0xf8f8	; ????
     712:	f8 f8       	.word	0xf8f8	; ????
     714:	f8 f8       	.word	0xf8f8	; ????
     716:	f8 f8       	.word	0xf8f8	; ????
     718:	f8 f8       	.word	0xf8f8	; ????
     71a:	f8 f8       	.word	0xf8f8	; ????
     71c:	f8 f8       	.word	0xf8f8	; ????
     71e:	f8 00       	.word	0x00f8	; ????
	...
     728:	fc ff       	.word	0xfffc	; ????
     72a:	ff ff       	.word	0xffff	; ????
     72c:	ff ff       	.word	0xffff	; ????
     72e:	ff ff       	.word	0xffff	; ????
     730:	ff ff       	.word	0xffff	; ????
     732:	0f 0f       	add	r16, r31
     734:	0f 0f       	add	r16, r31
     736:	0f 0f       	add	r16, r31
     738:	0f 0f       	add	r16, r31
     73a:	0f 0f       	add	r16, r31
     73c:	0f 0f       	add	r16, r31
     73e:	0f 0f       	add	r16, r31
     740:	0f 0f       	add	r16, r31
     742:	0f 0f       	add	r16, r31
     744:	0f 0f       	add	r16, r31
     746:	0f 0f       	add	r16, r31
     748:	0f 00       	.word	0x000f	; ????
     74a:	00 00       	nop
     74c:	00 00       	nop
     74e:	00 00       	nop
     750:	00 f8       	bld	r0, 0
     752:	ff ff       	.word	0xffff	; ????
     754:	ff ff       	.word	0xffff	; ????
     756:	ff ff       	.word	0xffff	; ????
     758:	ff ff       	.word	0xffff	; ????
     75a:	ff 07       	cpc	r31, r31
     75c:	00 00       	nop
     75e:	00 80       	ld	r0, Z
     760:	80 80       	ld	r8, Z
     762:	80 80       	ld	r8, Z
     764:	80 80       	ld	r8, Z
     766:	80 80       	ld	r8, Z
	...
     778:	00 00       	nop
     77a:	e0 ff       	sbrs	r30, 0
     77c:	ff ff       	.word	0xffff	; ????
     77e:	ff ff       	.word	0xffff	; ????
     780:	ff ff       	.word	0xffff	; ????
     782:	ff ff       	.word	0xffff	; ????
     784:	ff fe       	.word	0xfeff	; ????
     786:	fe ff       	.word	0xfffe	; ????
     788:	ff ff       	.word	0xffff	; ????
     78a:	ff ff       	.word	0xffff	; ????
     78c:	ff ff       	.word	0xffff	; ????
     78e:	ff ff       	.word	0xffff	; ????
     790:	ff ff       	.word	0xffff	; ????
     792:	ff ff       	.word	0xffff	; ????
     794:	ff fe       	.word	0xfeff	; ????
     796:	fe fc       	.word	0xfcfe	; ????
     798:	fc f8       	.word	0xf8fc	; ????
     79a:	f0 c0       	rjmp	.+480    	; 0x97c <__stack+0x7d>
     79c:	80 00       	.word	0x0080	; ????
     79e:	00 00       	nop
     7a0:	00 00       	nop
     7a2:	00 00       	nop
     7a4:	01 01       	movw	r0, r2
     7a6:	01 03       	mulsu	r16, r17
     7a8:	03 03       	mulsu	r16, r19
     7aa:	03 07       	cpc	r16, r19
     7ac:	07 03       	mulsu	r16, r23
     7ae:	01 01       	movw	r0, r2
	...
     7b8:	00 01       	movw	r0, r0
     7ba:	03 03       	mulsu	r16, r19
     7bc:	0f 3f       	cpi	r16, 0xFF	; 255
     7be:	ff ff       	.word	0xffff	; ????
     7c0:	ff ff       	.word	0xffff	; ????
     7c2:	ff ff       	.word	0xffff	; ????
     7c4:	ff ff       	.word	0xffff	; ????
     7c6:	ff fc       	.word	0xfcff	; ????
     7c8:	c0 00       	.word	0x00c0	; ????
     7ca:	00 00       	nop
     7cc:	00 e0       	ldi	r16, 0x00	; 0
     7ce:	e0 e0       	ldi	r30, 0x00	; 0
     7d0:	e0 e0       	ldi	r30, 0x00	; 0
     7d2:	e0 e0       	ldi	r30, 0x00	; 0
     7d4:	e0 e0       	ldi	r30, 0x00	; 0
     7d6:	e0 c0       	rjmp	.+448    	; 0x998 <__stack+0x99>
	...
     7e4:	00 00       	nop
     7e6:	00 c0       	rjmp	.+0      	; 0x7e8 <__LOCK_REGION_LENGTH__+0x3e8>
     7e8:	ff ff       	.word	0xffff	; ????
     7ea:	ff ff       	.word	0xffff	; ????
     7ec:	ff ff       	.word	0xffff	; ????
     7ee:	ff ff       	.word	0xffff	; ????
     7f0:	ff ff       	.word	0xffff	; ????
     7f2:	1f 00       	.word	0x001f	; ????
     7f4:	00 00       	nop
     7f6:	00 03       	mulsu	r16, r16
     7f8:	0f 1f       	adc	r16, r31
     7fa:	7f ff       	.word	0xff7f	; ????
     7fc:	ff ff       	.word	0xffff	; ????
     7fe:	ff ff       	.word	0xffff	; ????
     800:	ff ff       	.word	0xffff	; ????
     802:	fe fc       	.word	0xfcfe	; ????
     804:	f8 f8       	.word	0xf8f8	; ????
     806:	f0 f0       	brcs	.+60     	; 0x844 <__LOCK_REGION_LENGTH__+0x444>
     808:	f0 f0       	brcs	.+60     	; 0x846 <__LOCK_REGION_LENGTH__+0x446>
     80a:	f0 f0       	brcs	.+60     	; 0x848 <__LOCK_REGION_LENGTH__+0x448>
     80c:	f0 f8       	bld	r15, 0
     80e:	f8 fc       	.word	0xfcf8	; ????
     810:	ff ff       	.word	0xffff	; ????
     812:	ff ff       	.word	0xffff	; ????
     814:	ff ff       	.word	0xffff	; ????
     816:	ff ff       	.word	0xffff	; ????
     818:	7f 3f       	cpi	r23, 0xFF	; 255
     81a:	0f 03       	fmul	r16, r23
	...
     824:	00 00       	nop
     826:	01 01       	movw	r0, r2
     828:	03 07       	cpc	r16, r19
     82a:	07 07       	cpc	r16, r23
     82c:	0f 0f       	add	r16, r31
     82e:	0f 1f       	adc	r16, r31
     830:	1f 1f       	adc	r17, r31
     832:	1f 1f       	adc	r17, r31
     834:	1f 1f       	adc	r17, r31
     836:	1f 1f       	adc	r17, r31
     838:	1f 0f       	add	r17, r31
     83a:	0f 0f       	add	r16, r31
     83c:	07 07       	cpc	r16, r23
     83e:	03 03       	mulsu	r16, r19
     840:	01 00       	.word	0x0001	; ????
	...
     852:	00 00       	nop
     854:	00 80       	ld	r0, Z
     856:	80 c0       	rjmp	.+256    	; 0x958 <__stack+0x59>
     858:	e0 e0       	ldi	r30, 0x00	; 0
     85a:	f0 f0       	brcs	.+60     	; 0x898 <__LOCK_REGION_LENGTH__+0x498>
     85c:	f0 f8       	bld	r15, 0
     85e:	f8 f8       	.word	0xf8f8	; ????
     860:	f8 fc       	.word	0xfcf8	; ????
     862:	fc fc       	.word	0xfcfc	; ????
     864:	fc fc       	.word	0xfcfc	; ????
     866:	fc fc       	.word	0xfcfc	; ????
	...
     878:	80 c0       	rjmp	.+256    	; 0x97a <__stack+0x7b>
     87a:	f0 f8       	bld	r15, 0
     87c:	fc fe       	.word	0xfefc	; ????
     87e:	ff ff       	.word	0xffff	; ????
     880:	ff ff       	.word	0xffff	; ????
     882:	ff ff       	.word	0xffff	; ????
     884:	7f 7f       	andi	r23, 0xFF	; 255
     886:	3f 1f       	adc	r19, r31
     888:	1f 0f       	add	r17, r31
     88a:	0f 0f       	add	r16, r31
     88c:	07 07       	cpc	r16, r23
     88e:	07 07       	cpc	r16, r23
     890:	07 07       	cpc	r16, r23
	...
     89e:	00 80       	ld	r0, Z
     8a0:	f0 fe       	sbrs	r15, 0
     8a2:	ff ff       	.word	0xffff	; ????
     8a4:	ff ff       	.word	0xffff	; ????
     8a6:	ff ff       	.word	0xffff	; ????
     8a8:	ff ff       	.word	0xffff	; ????
     8aa:	3f 07       	cpc	r19, r31
     8ac:	03 00       	.word	0x0003	; ????
     8ae:	00 80       	ld	r0, Z
     8b0:	80 80       	ld	r8, Z
     8b2:	c0 c0       	rjmp	.+384    	; 0xa34 <__stack+0x135>
     8b4:	c0 c0       	rjmp	.+384    	; 0xa36 <__stack+0x137>
     8b6:	c0 c0       	rjmp	.+384    	; 0xa38 <__stack+0x139>
     8b8:	80 80       	ld	r8, Z
     8ba:	80 00       	.word	0x0080	; ????
	...
     8c8:	f0 ff       	sbrs	r31, 0
     8ca:	ff ff       	.word	0xffff	; ????
     8cc:	ff ff       	.word	0xffff	; ????
     8ce:	ff ff       	.word	0xffff	; ????
     8d0:	ff ff       	.word	0xffff	; ????
     8d2:	ff f9       	.word	0xf9ff	; ????
     8d4:	fc fe       	.word	0xfefc	; ????
     8d6:	fe ff       	.word	0xfffe	; ????
     8d8:	7f 7f       	andi	r23, 0xFF	; 255
     8da:	7f 7f       	andi	r23, 0xFF	; 255
     8dc:	7f 7f       	andi	r23, 0xFF	; 255
     8de:	ff ff       	.word	0xffff	; ????
     8e0:	ff ff       	.word	0xffff	; ????
     8e2:	ff ff       	.word	0xffff	; ????
     8e4:	ff ff       	.word	0xffff	; ????
     8e6:	ff fe       	.word	0xfeff	; ????
     8e8:	fc fc       	.word	0xfcfc	; ????
     8ea:	f0 e0       	ldi	r31, 0x00	; 0
     8ec:	80 00       	.word	0x0080	; ????
     8ee:	00 00       	nop
     8f0:	00 00       	nop
     8f2:	ff ff       	.word	0xffff	; ????
     8f4:	ff ff       	.word	0xffff	; ????
     8f6:	ff ff       	.word	0xffff	; ????
     8f8:	ff ff       	.word	0xffff	; ????
     8fa:	ff ff       	.word	0xffff	; ????
     8fc:	ff 0f       	add	r31, r31
     8fe:	03 01       	movw	r0, r6
	...
     908:	00 00       	nop
     90a:	01 03       	mulsu	r16, r17
     90c:	07 1f       	adc	r16, r23
     90e:	ff ff       	.word	0xffff	; ????
     910:	ff ff       	.word	0xffff	; ????
     912:	ff ff       	.word	0xffff	; ????
     914:	ff ff       	.word	0xffff	; ????
     916:	ff fe       	.word	0xfeff	; ????
     918:	e0 00       	.word	0x00e0	; ????
     91a:	00 00       	nop
     91c:	07 7f       	andi	r16, 0xF7	; 247
     91e:	ff ff       	.word	0xffff	; ????
     920:	ff ff       	.word	0xffff	; ????
     922:	ff ff       	.word	0xffff	; ????
     924:	ff ff       	.word	0xffff	; ????
     926:	ff e0       	ldi	r31, 0x0F	; 15
	...
     934:	00 00       	nop
     936:	00 c0       	rjmp	.+0      	; 0x938 <__stack+0x39>
     938:	ff ff       	.word	0xffff	; ????
     93a:	ff ff       	.word	0xffff	; ????
     93c:	ff ff       	.word	0xffff	; ????
     93e:	ff ff       	.word	0xffff	; ????
     940:	ff ff       	.word	0xffff	; ????
     942:	3f 00       	.word	0x003f	; ????
     944:	00 00       	nop
     946:	00 00       	nop
     948:	03 0f       	add	r16, r19
     94a:	1f 7f       	andi	r17, 0xFF	; 255
     94c:	ff ff       	.word	0xffff	; ????
     94e:	ff ff       	.word	0xffff	; ????
     950:	ff ff       	.word	0xffff	; ????
     952:	ff fe       	.word	0xfeff	; ????
     954:	fc f8       	.word	0xf8fc	; ????
     956:	f0 f0       	brcs	.+60     	; 0x994 <__stack+0x95>
     958:	f0 f0       	brcs	.+60     	; 0x996 <__stack+0x97>
     95a:	f0 f0       	brcs	.+60     	; 0x998 <__stack+0x99>
     95c:	f0 f8       	bld	r15, 0
     95e:	f8 fc       	.word	0xfcf8	; ????
     960:	ff ff       	.word	0xffff	; ????
     962:	ff ff       	.word	0xffff	; ????
     964:	ff ff       	.word	0xffff	; ????
     966:	ff ff       	.word	0xffff	; ????
     968:	7f 1f       	adc	r23, r31
     96a:	0f 01       	movw	r0, r30
	...
     974:	00 00       	nop
     976:	00 01       	movw	r0, r0
     978:	01 03       	mulsu	r16, r17
     97a:	07 07       	cpc	r16, r23
     97c:	0f 0f       	add	r16, r31
     97e:	0f 1f       	adc	r16, r31
     980:	1f 1f       	adc	r17, r31
     982:	1f 1f       	adc	r17, r31
     984:	1f 1f       	adc	r17, r31
     986:	1f 1f       	adc	r17, r31
     988:	1f 0f       	add	r17, r31
     98a:	0f 0f       	add	r16, r31
     98c:	07 07       	cpc	r16, r23
     98e:	03 01       	movw	r0, r6
     990:	01 00       	.word	0x0001	; ????
	...
     a16:	00 00       	nop
     a18:	00 f0       	brcs	.+0      	; 0xa1a <__stack+0x11b>
     a1a:	f0 f0       	brcs	.+60     	; 0xa58 <__stack+0x159>
     a1c:	f0 f0       	brcs	.+60     	; 0xa5a <__stack+0x15b>
     a1e:	f0 f0       	brcs	.+60     	; 0xa5c <__stack+0x15d>
     a20:	f0 f0       	brcs	.+60     	; 0xa5e <__stack+0x15f>
     a22:	f0 f0       	brcs	.+60     	; 0xa60 <__stack+0x161>
     a24:	f0 f0       	brcs	.+60     	; 0xa62 <__stack+0x163>
     a26:	f0 f0       	brcs	.+60     	; 0xa64 <__stack+0x165>
     a28:	f0 f0       	brcs	.+60     	; 0xa66 <__stack+0x167>
     a2a:	f0 f0       	brcs	.+60     	; 0xa68 <__stack+0x169>
     a2c:	f0 f0       	brcs	.+60     	; 0xa6a <__stack+0x16b>
     a2e:	f0 f0       	brcs	.+60     	; 0xa6c <__stack+0x16d>
     a30:	f0 f0       	brcs	.+60     	; 0xa6e <__stack+0x16f>
     a32:	f0 f0       	brcs	.+60     	; 0xa70 <__stack+0x171>
     a34:	f0 f0       	brcs	.+60     	; 0xa72 <__stack+0x173>
     a36:	f0 f0       	brcs	.+60     	; 0xa74 <__stack+0x175>
     a38:	f0 f0       	brcs	.+60     	; 0xa76 <__stack+0x177>
     a3a:	f0 f0       	brcs	.+60     	; 0xa78 <__stack+0x179>
     a3c:	f0 00       	.word	0x00f0	; ????
     a3e:	00 00       	nop
     a40:	00 00       	nop
     a42:	00 0f       	add	r16, r16
     a44:	0f 0f       	add	r16, r31
     a46:	0f 0f       	add	r16, r31
     a48:	0f 0f       	add	r16, r31
     a4a:	0f 0f       	add	r16, r31
     a4c:	0f 0f       	add	r16, r31
     a4e:	0f 0f       	add	r16, r31
     a50:	0f 0f       	add	r16, r31
     a52:	0f 0f       	add	r16, r31
     a54:	0f 0f       	add	r16, r31
     a56:	0f 0f       	add	r16, r31
     a58:	0f 0f       	add	r16, r31
     a5a:	0f 0f       	add	r16, r31
     a5c:	0f 0f       	add	r16, r31
     a5e:	0f 0f       	add	r16, r31
     a60:	0f 0f       	add	r16, r31
     a62:	0f 0f       	add	r16, r31
     a64:	0f 0f       	add	r16, r31
     a66:	0f 00       	.word	0x000f	; ????
	...

00000ae8 <myFont>:
	...
     af0:	00 00 5f 00 00 00 00 00 00 00 07 00 07 00 00 00     .._.............
     b00:	00 14 7f 14 7f 14 00 00 00 24 2a 7f 2a 12 00 00     .........$*.*...
     b10:	00 23 13 08 64 62 00 00 00 36 49 55 22 50 00 00     .#..db...6IU"P..
     b20:	00 00 05 03 00 00 00 00 00 1c 22 41 00 00 00 00     .........."A....
     b30:	00 41 22 1c 00 00 00 00 00 08 2a 1c 2a 08 00 00     .A".......*.*...
     b40:	00 08 08 3e 08 08 00 00 00 a0 60 00 00 00 00 00     ...>......`.....
     b50:	00 08 08 08 08 08 00 00 00 60 60 00 00 00 00 00     .........``.....
     b60:	00 20 10 08 04 02 00 00 00 3e 51 49 45 3e 00 00     . .......>QIE>..
     b70:	00 00 42 7f 40 00 00 00 00 62 51 49 49 46 00 00     ..B.@....bQIIF..
     b80:	00 22 41 49 49 36 00 00 00 18 14 12 7f 10 00 00     ."AII6..........
     b90:	00 27 45 45 45 39 00 00 00 3c 4a 49 49 30 00 00     .'EEE9...<JII0..
     ba0:	00 01 71 09 05 03 00 00 00 36 49 49 49 36 00 00     ..q......6III6..
     bb0:	00 06 49 49 29 1e 00 00 00 00 36 36 00 00 00 00     ..II).....66....
     bc0:	00 00 ac 6c 00 00 00 00 00 08 14 22 41 00 00 00     ...l......."A...
     bd0:	00 14 14 14 14 14 00 00 00 41 22 14 08 00 00 00     .........A".....
     be0:	00 02 01 51 09 06 00 00 00 32 49 79 41 3e 00 00     ...Q.....2IyA>..
     bf0:	00 7e 09 09 09 7e 00 00 00 7f 49 49 49 36 00 00     .~...~....III6..
     c00:	00 3e 41 41 41 22 00 00 00 7f 41 41 22 1c 00 00     .>AAA"....AA"...
     c10:	00 7f 49 49 49 41 00 00 00 7f 09 09 09 01 00 00     ..IIIA..........
     c20:	00 3e 41 41 51 72 00 00 00 7f 08 08 08 7f 00 00     .>AAQr..........
     c30:	00 41 7f 41 00 00 00 00 00 20 40 41 3f 01 00 00     .A.A..... @A?...
     c40:	00 7f 08 14 22 41 00 00 00 7f 40 40 40 40 00 00     ...."A....@@@@..
     c50:	00 7f 02 0c 02 7f 00 00 00 7f 04 08 10 7f 00 00     ................
     c60:	00 3e 41 41 41 3e 00 00 00 7f 09 09 09 06 00 00     .>AAA>..........
     c70:	00 3e 41 51 21 5e 00 00 00 7f 09 19 29 46 00 00     .>AQ!^......)F..
     c80:	00 26 49 49 49 32 00 00 00 01 01 7f 01 01 00 00     .&III2..........
     c90:	00 3f 40 40 40 3f 00 00 00 1f 20 40 20 1f 00 00     .?@@@?.... @ ...
     ca0:	00 3f 40 38 40 3f 00 00 00 63 14 08 14 63 00 00     .?@8@?...c...c..
     cb0:	00 03 04 78 04 03 00 00 00 61 51 49 45 43 00 00     ...x.....aQIEC..
     cc0:	00 7f 41 41 00 00 00 00 00 02 04 08 10 20 00 00     ..AA......... ..
     cd0:	00 41 41 7f 00 00 00 00 00 04 02 01 02 04 00 00     .AA.............
     ce0:	00 80 80 80 80 80 00 00 00 01 02 04 00 00 00 00     ................
     cf0:	00 20 54 54 54 78 00 00 00 7f 48 44 44 38 00 00     . TTTx....HDD8..
     d00:	00 38 44 44 28 00 00 00 00 38 44 44 48 7f 00 00     .8DD(....8DDH...
     d10:	00 38 54 54 54 18 00 00 00 08 7e 09 02 00 00 00     .8TTT.....~.....
     d20:	00 18 a4 a4 a4 7c 00 00 00 7f 08 04 04 78 00 00     .....|.......x..
     d30:	00 00 7d 00 00 00 00 00 00 80 84 7d 00 00 00 00     ..}........}....
     d40:	00 7f 10 28 44 00 00 00 00 41 7f 40 00 00 00 00     ...(D....A.@....
     d50:	00 7c 04 18 04 78 00 00 00 7c 08 04 7c 00 00 00     .|...x...|..|...
     d60:	00 38 44 44 38 00 00 00 00 fc 24 24 18 00 00 00     .8DD8.....$$....
     d70:	00 18 24 24 fc 00 00 00 00 00 7c 08 04 00 00 00     ..$$......|.....
     d80:	00 48 54 54 24 00 00 00 00 04 7f 44 00 00 00 00     .HTT$......D....
     d90:	00 3c 40 40 7c 00 00 00 00 1c 20 40 20 1c 00 00     .<@@|..... @ ...
     da0:	00 3c 40 30 40 3c 00 00 00 44 28 10 28 44 00 00     .<@0@<...D(.(D..
     db0:	00 1c a0 a0 7c 00 00 00 00 44 64 54 4c 44 00 00     ....|....DdTLD..
     dc0:	00 08 36 41 00 00 00 00 00 00 7f 00 00 00 00 00     ..6A............
     dd0:	00 41 36 08 00 00 00 00 00 02 01 01 02 01 00 00     .A6.............
     de0:	00 02 05 05 02 00 00 00                             ........

00000de8 <bigNumbers>:
     de8:	00 00 00 c0 e0 f0 f0 f0 f0 f0 f0 f0 f0 f0 f0 f0     ................
     df8:	f0 f0 f0 e0 c0 00 00 00 00 00 00 ff ff ff ff 01     ................
	...
     e10:	01 ff ff ff ff 00 00 00 00 00 00 ff ff ff ff 80     ................
	...
     e28:	80 ff ff ff ff 00 00 00 00 00 00 03 07 0f 0f 0f     ................
     e38:	0f 0f 0f 0f 0f 0f 0f 0f 0f 0f 0f 07 03 00 00 00     ................
	...
     e54:	00 00 e0 f0 f0 e0 00 00 00 00 00 00 00 00 00 00     ................
	...
     e6c:	00 00 ff ff ff ff 00 00 00 00 00 00 00 00 00 00     ................
	...
     e84:	00 00 ff ff ff ff 00 00 00 00 00 00 00 00 00 00     ................
	...
     e9c:	00 00 03 07 07 03 00 00 00 00 00 00 00 00 00 e0     ................
     eac:	f0 f0 f0 f0 f0 f0 f0 f0 f0 f0 f0 f0 f0 f0 f0 e0     ................
     ebc:	00 00 00 00 00 00 00 81 c1 c0 c0 c0 c0 c0 c0 c0     ................
     ecc:	c0 c0 c0 e1 ff ff ff ff 00 00 00 00 00 00 00 ff     ................
     edc:	ff ff ff 87 03 03 03 03 03 03 03 03 03 03 83 81     ................
     eec:	00 00 00 00 00 00 00 07 0f 0f 0f 0f 0f 0f 0f 0f     ................
     efc:	0f 0f 0f 0f 0f 0f 0f 07 00 00 00 00 00 00 00 e0     ................
     f0c:	f0 f0 f0 f0 f0 f0 f0 f0 f0 f0 f0 f0 f0 f0 f0 e0     ................
     f1c:	00 00 00 00 00 00 00 81 c1 c0 c0 c0 c0 c0 c0 c0     ................
     f2c:	c0 c0 c0 e1 ff ff ff 7f 00 00 00 00 00 00 00 81     ................
     f3c:	83 03 03 03 03 03 03 03 03 03 03 87 ff ff ff fe     ................
     f4c:	00 00 00 00 00 00 00 07 0f 0f 0f 0f 0f 0f 0f 0f     ................
     f5c:	0f 0f 0f 0f 0f 0f 0f 07 00 00 00 00 00 00 00 e0     ................
     f6c:	f0 f0 f0 30 00 00 00 00 00 00 00 30 f0 f0 f0 e0     ...0.......0....
     f7c:	00 00 00 00 00 00 00 ff ff ff ff e0 c0 c0 c0 c0     ................
     f8c:	c0 c0 c0 e0 ff ff ff ff 00 00 00 00 00 00 00 01     ................
     f9c:	03 03 03 03 03 03 03 03 03 03 03 07 ff ff ff ff     ................
	...
     fbc:	00 00 00 0c 0f 0f 0f 07 00 00 00 00 00 00 00 e0     ................
     fcc:	f0 f0 f0 f0 f0 f0 f0 f0 f0 f0 f0 f0 f0 f0 f0 e0     ................
     fdc:	00 00 00 00 00 00 00 ff ff ff ff e1 c0 c0 c0 c0     ................
     fec:	c0 c0 c0 c0 c0 c0 c1 81 00 00 00 00 00 00 00 81     ................
     ffc:	83 03 03 03 03 03 03 03 03 03 03 87 ff ff ff ff     ................
    100c:	00 00 00 00 00 00 00 07 0f 0f 0f 0f 0f 0f 0f 0f     ................
    101c:	0f 0f 0f 0f 0f 0f 0f 07 00 00 00 00 00 00 00 e0     ................
    102c:	f0 f0 f0 f0 f0 f0 f0 f0 f0 f0 f0 f0 f0 f0 f0 e0     ................
    103c:	00 00 00 00 00 00 00 ff ff ff ff e1 c0 c0 c0 c0     ................
    104c:	c0 c0 c0 c0 c0 c0 c1 81 00 00 00 00 00 00 00 ff     ................
    105c:	ff ff ff 87 03 03 03 03 03 03 03 87 ff ff ff ff     ................
    106c:	00 00 00 00 00 00 00 07 0f 0f 0f 0f 0f 0f 0f 0f     ................
    107c:	0f 0f 0f 0f 0f 0f 0f 07 00 00 00 00 00 00 00 e0     ................
    108c:	f0 f0 f0 f0 f0 f0 f0 f0 f0 f0 f0 f0 f0 f0 f0 e0     ................
    109c:	00 00 00 00 00 00 00 01 01 00 00 00 00 00 00 00     ................
    10ac:	00 00 00 01 ff ff ff ff 00 00 00 00 00 00 00 00     ................
	...
    10c8:	ff ff ff ff 00 00 00 00 00 00 00 00 00 00 00 00     ................
    10d8:	00 00 00 00 00 00 00 0c 0f 0f 0f 07 00 00 00 00     ................
    10e8:	00 00 00 e0 f0 f0 f0 f0 f0 f0 f0 f0 f0 f0 f0 f0     ................
    10f8:	f0 f0 f0 e0 00 00 00 00 00 00 00 7f ff ff ff e1     ................
    1108:	c0 c0 c0 c0 c0 c0 c0 e1 ff ff ff 3f 00 00 00 00     ...........?....
    1118:	00 00 00 fe ff ff ff 87 03 03 03 03 03 03 03 87     ................
    1128:	ff ff ff fe 00 00 00 00 00 00 00 07 0f 0f 0f 0f     ................
    1138:	0f 0f 0f 0f 0f 0f 0f 0f 0f 0f 0f 07 00 00 00 00     ................
    1148:	00 00 00 e0 f0 f0 f0 f0 f0 f0 f0 f0 f0 f0 f0 f0     ................
    1158:	f0 f0 f0 e0 00 00 00 00 00 00 00 ff ff ff ff e1     ................
    1168:	c0 c0 c0 c0 c0 c0 c0 e1 ff ff ff ff 00 00 00 00     ................
    1178:	00 00 00 01 03 03 03 03 03 03 03 03 03 03 03 07     ................
    1188:	ff ff ff ff 00 00 00 00 00 00 00 00 00 00 00 00     ................
    1198:	00 00 00 00 00 00 00 0c 0f 0f 0f 07 00 00 00 00     ................
	...
    11c8:	00 3c 7e 7e 7e 7e 3c 00 00 00 00 00 00 00 00 00     .<~~~~<.........
	...
    11e0:	00 f0 f8 f8 f8 f8 f0 00 00 00 00 00 00 00 00 00     ................
	...
    11f8:	00 00 01 01 01 01 00 00 00 00 00 00 00 00 00 00     ................

00001208 <__ctors_end>:
    1208:	11 24       	eor	r1, r1
    120a:	1f be       	out	0x3f, r1	; 63
    120c:	cf ef       	ldi	r28, 0xFF	; 255
    120e:	d8 e0       	ldi	r29, 0x08	; 8
    1210:	de bf       	out	0x3e, r29	; 62
    1212:	cd bf       	out	0x3d, r28	; 61

00001214 <__do_copy_data>:
    1214:	11 e0       	ldi	r17, 0x01	; 1
    1216:	a0 e0       	ldi	r26, 0x00	; 0
    1218:	b1 e0       	ldi	r27, 0x01	; 1
    121a:	e6 eb       	ldi	r30, 0xB6	; 182
    121c:	fa e1       	ldi	r31, 0x1A	; 26
    121e:	02 c0       	rjmp	.+4      	; 0x1224 <__do_copy_data+0x10>
    1220:	05 90       	lpm	r0, Z+
    1222:	0d 92       	st	X+, r0
    1224:	a4 33       	cpi	r26, 0x34	; 52
    1226:	b1 07       	cpc	r27, r17
    1228:	d9 f7       	brne	.-10     	; 0x1220 <__do_copy_data+0xc>

0000122a <__do_clear_bss>:
    122a:	25 e0       	ldi	r18, 0x05	; 5
    122c:	a4 e3       	ldi	r26, 0x34	; 52
    122e:	b1 e0       	ldi	r27, 0x01	; 1
    1230:	01 c0       	rjmp	.+2      	; 0x1234 <.do_clear_bss_start>

00001232 <.do_clear_bss_loop>:
    1232:	1d 92       	st	X+, r1

00001234 <.do_clear_bss_start>:
    1234:	a2 3b       	cpi	r26, 0xB2	; 178
    1236:	b2 07       	cpc	r27, r18
    1238:	e1 f7       	brne	.-8      	; 0x1232 <.do_clear_bss_loop>
    123a:	0e 94 86 0a 	call	0x150c	; 0x150c <main>
    123e:	0c 94 59 0d 	jmp	0x1ab2	; 0x1ab2 <_exit>

00001242 <__bad_interrupt>:
    1242:	0c 94 00 00 	jmp	0	; 0x0 <__vectors>

00001246 <I2C_Init>:
char I2C_Read_Nack()		/* I2C read nack function */
{
	TWCR=(1<<TWEN)|(1<<TWINT);	/* Enable TWI and clear interrupt flag */
	while(!(TWCR&(1<<TWINT)));	/* Wait until TWI finish its current job */
	return TWDR;		/* Return received data */
}
    1246:	82 e1       	ldi	r24, 0x12	; 18
    1248:	80 93 b8 00 	sts	0x00B8, r24	; 0x8000b8 <__TEXT_REGION_LENGTH__+0x7e00b8>
    124c:	e9 eb       	ldi	r30, 0xB9	; 185
    124e:	f0 e0       	ldi	r31, 0x00	; 0
    1250:	80 81       	ld	r24, Z
    1252:	8c 7f       	andi	r24, 0xFC	; 252
    1254:	80 83       	st	Z, r24
    1256:	85 e0       	ldi	r24, 0x05	; 5
    1258:	80 93 bc 00 	sts	0x00BC, r24	; 0x8000bc <__TEXT_REGION_LENGTH__+0x7e00bc>
    125c:	08 95       	ret

0000125e <I2C_Start>:
    125e:	94 ea       	ldi	r25, 0xA4	; 164
    1260:	90 93 bc 00 	sts	0x00BC, r25	; 0x8000bc <__TEXT_REGION_LENGTH__+0x7e00bc>
    1264:	ec eb       	ldi	r30, 0xBC	; 188
    1266:	f0 e0       	ldi	r31, 0x00	; 0
    1268:	90 81       	ld	r25, Z
    126a:	99 23       	and	r25, r25
    126c:	ec f7       	brge	.-6      	; 0x1268 <I2C_Start+0xa>
    126e:	90 91 b9 00 	lds	r25, 0x00B9	; 0x8000b9 <__TEXT_REGION_LENGTH__+0x7e00b9>
    1272:	98 7f       	andi	r25, 0xF8	; 248
    1274:	98 30       	cpi	r25, 0x08	; 8
    1276:	99 f4       	brne	.+38     	; 0x129e <I2C_Start+0x40>
    1278:	80 93 bb 00 	sts	0x00BB, r24	; 0x8000bb <__TEXT_REGION_LENGTH__+0x7e00bb>
    127c:	84 e8       	ldi	r24, 0x84	; 132
    127e:	80 93 bc 00 	sts	0x00BC, r24	; 0x8000bc <__TEXT_REGION_LENGTH__+0x7e00bc>
    1282:	ec eb       	ldi	r30, 0xBC	; 188
    1284:	f0 e0       	ldi	r31, 0x00	; 0
    1286:	80 81       	ld	r24, Z
    1288:	88 23       	and	r24, r24
    128a:	ec f7       	brge	.-6      	; 0x1286 <I2C_Start+0x28>
    128c:	80 91 b9 00 	lds	r24, 0x00B9	; 0x8000b9 <__TEXT_REGION_LENGTH__+0x7e00b9>
    1290:	88 7f       	andi	r24, 0xF8	; 248
    1292:	88 31       	cpi	r24, 0x18	; 24
    1294:	31 f0       	breq	.+12     	; 0x12a2 <I2C_Start+0x44>
    1296:	80 32       	cpi	r24, 0x20	; 32
    1298:	31 f0       	breq	.+12     	; 0x12a6 <I2C_Start+0x48>
    129a:	83 e0       	ldi	r24, 0x03	; 3
    129c:	08 95       	ret
    129e:	80 e0       	ldi	r24, 0x00	; 0
    12a0:	08 95       	ret
    12a2:	81 e0       	ldi	r24, 0x01	; 1
    12a4:	08 95       	ret
    12a6:	82 e0       	ldi	r24, 0x02	; 2
    12a8:	08 95       	ret

000012aa <I2C_Write>:
    12aa:	80 93 bb 00 	sts	0x00BB, r24	; 0x8000bb <__TEXT_REGION_LENGTH__+0x7e00bb>
    12ae:	84 e8       	ldi	r24, 0x84	; 132
    12b0:	80 93 bc 00 	sts	0x00BC, r24	; 0x8000bc <__TEXT_REGION_LENGTH__+0x7e00bc>
    12b4:	ec eb       	ldi	r30, 0xBC	; 188
    12b6:	f0 e0       	ldi	r31, 0x00	; 0
    12b8:	80 81       	ld	r24, Z
    12ba:	88 23       	and	r24, r24
    12bc:	ec f7       	brge	.-6      	; 0x12b8 <I2C_Write+0xe>
    12be:	80 91 b9 00 	lds	r24, 0x00B9	; 0x8000b9 <__TEXT_REGION_LENGTH__+0x7e00b9>
    12c2:	88 7f       	andi	r24, 0xF8	; 248
    12c4:	88 32       	cpi	r24, 0x28	; 40
    12c6:	21 f0       	breq	.+8      	; 0x12d0 <I2C_Write+0x26>
    12c8:	80 33       	cpi	r24, 0x30	; 48
    12ca:	21 f0       	breq	.+8      	; 0x12d4 <I2C_Write+0x2a>
    12cc:	82 e0       	ldi	r24, 0x02	; 2
    12ce:	08 95       	ret
    12d0:	80 e0       	ldi	r24, 0x00	; 0
    12d2:	08 95       	ret
    12d4:	81 e0       	ldi	r24, 0x01	; 1
    12d6:	08 95       	ret

000012d8 <I2C_Stop>:

void I2C_Stop()			/* I2C stop function */
{
	TWCR=(1<<TWSTO)|(1<<TWINT)|(1<<TWEN);/* Enable TWI, generate stop */
    12d8:	84 e9       	ldi	r24, 0x94	; 148
    12da:	80 93 bc 00 	sts	0x00BC, r24	; 0x8000bc <__TEXT_REGION_LENGTH__+0x7e00bc>
	while(TWCR&(1<<TWSTO));	/* Wait until stop condition execution */
    12de:	ec eb       	ldi	r30, 0xBC	; 188
    12e0:	f0 e0       	ldi	r31, 0x00	; 0
    12e2:	80 81       	ld	r24, Z
    12e4:	84 fd       	sbrc	r24, 4
    12e6:	fd cf       	rjmp	.-6      	; 0x12e2 <I2C_Stop+0xa>
    12e8:	08 95       	ret

000012ea <setup_LED>:
	{
	};
	a = UDR0;
	//USART_send(a);  //echo
	return a;
}
    12ea:	53 9a       	sbi	0x0a, 3	; 10
    12ec:	56 9a       	sbi	0x0a, 6	; 10
    12ee:	5b 98       	cbi	0x0b, 3	; 11
    12f0:	5e 98       	cbi	0x0b, 6	; 11
    12f2:	21 9a       	sbi	0x04, 1	; 4
    12f4:	29 98       	cbi	0x05, 1	; 5
    12f6:	08 95       	ret

000012f8 <setup_T0_WD>:
    12f8:	82 e0       	ldi	r24, 0x02	; 2
    12fa:	84 bd       	out	0x24, r24	; 36
    12fc:	85 e0       	ldi	r24, 0x05	; 5
    12fe:	85 bd       	out	0x25, r24	; 37
    1300:	8c e9       	ldi	r24, 0x9C	; 156
    1302:	87 bd       	out	0x27, r24	; 39
    1304:	ee e6       	ldi	r30, 0x6E	; 110
    1306:	f0 e0       	ldi	r31, 0x00	; 0
    1308:	80 81       	ld	r24, Z
    130a:	82 60       	ori	r24, 0x02	; 2
    130c:	80 83       	st	Z, r24
    130e:	08 95       	ret

00001310 <setup_Display>:
    1310:	0e 94 23 09 	call	0x1246	; 0x1246 <I2C_Init>
    1314:	8f e2       	ldi	r24, 0x2F	; 47
    1316:	95 e7       	ldi	r25, 0x75	; 117
    1318:	01 97       	sbiw	r24, 0x01	; 1
    131a:	f1 f7       	brne	.-4      	; 0x1318 <setup_Display+0x8>
    131c:	00 c0       	rjmp	.+0      	; 0x131e <setup_Display+0xe>
    131e:	00 00       	nop
    1320:	0e 94 9c 0b 	call	0x1738	; 0x1738 <InitializeDisplay>
    1324:	0e 94 35 0c 	call	0x186a	; 0x186a <clear_display>
    1328:	08 95       	ret

0000132a <setup_USART>:
    132a:	87 b1       	in	r24, 0x07	; 7
    132c:	8c 60       	ori	r24, 0x0C	; 12
    132e:	87 b9       	out	0x07, r24	; 7
    1330:	88 b1       	in	r24, 0x08	; 8
    1332:	83 7f       	andi	r24, 0xF3	; 243
    1334:	88 b9       	out	0x08, r24	; 8
    1336:	51 9a       	sbi	0x0a, 1	; 10
    1338:	50 98       	cbi	0x0a, 0	; 10
    133a:	58 9a       	sbi	0x0b, 0	; 11
    133c:	10 92 c5 00 	sts	0x00C5, r1	; 0x8000c5 <__TEXT_REGION_LENGTH__+0x7e00c5>
    1340:	8b e9       	ldi	r24, 0x9B	; 155
    1342:	80 93 c4 00 	sts	0x00C4, r24	; 0x8000c4 <__TEXT_REGION_LENGTH__+0x7e00c4>
    1346:	e1 ec       	ldi	r30, 0xC1	; 193
    1348:	f0 e0       	ldi	r31, 0x00	; 0
    134a:	80 81       	ld	r24, Z
    134c:	88 60       	ori	r24, 0x08	; 8
    134e:	80 83       	st	Z, r24
    1350:	80 81       	ld	r24, Z
    1352:	80 61       	ori	r24, 0x10	; 16
    1354:	80 83       	st	Z, r24
    1356:	80 81       	ld	r24, Z
    1358:	80 68       	ori	r24, 0x80	; 128
    135a:	80 83       	st	Z, r24
    135c:	e2 ec       	ldi	r30, 0xC2	; 194
    135e:	f0 e0       	ldi	r31, 0x00	; 0
    1360:	80 81       	ld	r24, Z
    1362:	86 60       	ori	r24, 0x06	; 6
    1364:	80 83       	st	Z, r24
    1366:	e0 ec       	ldi	r30, 0xC0	; 192
    1368:	f0 e0       	ldi	r31, 0x00	; 0
    136a:	80 81       	ld	r24, Z
    136c:	82 60       	ori	r24, 0x02	; 2
    136e:	80 83       	st	Z, r24
    1370:	08 95       	ret

00001372 <USART_send>:
    1372:	e0 ec       	ldi	r30, 0xC0	; 192
    1374:	f0 e0       	ldi	r31, 0x00	; 0
    1376:	90 81       	ld	r25, Z
    1378:	95 ff       	sbrs	r25, 5
    137a:	fd cf       	rjmp	.-6      	; 0x1376 <USART_send+0x4>
    137c:	80 93 c6 00 	sts	0x00C6, r24	; 0x8000c6 <__TEXT_REGION_LENGTH__+0x7e00c6>
    1380:	80 e0       	ldi	r24, 0x00	; 0
    1382:	08 95       	ret

00001384 <parseCameraStatus>:

void parseCameraStatus()
{
	// Ako prve skontrolujem stav tejto kamery - LIVE rezim
	if (!(RX_buffer[1] & CAMERA_MASK))
    1384:	80 91 3b 05 	lds	r24, 0x053B	; 0x80053b <RX_buffer+0x1>
    1388:	81 fd       	sbrc	r24, 1
    138a:	04 c0       	rjmp	.+8      	; 0x1394 <parseCameraStatus+0x10>
	{
		CAM_LIVE = CAMERA;
    138c:	82 e0       	ldi	r24, 0x02	; 2
    138e:	80 93 00 01 	sts	0x0100, r24	; 0x800100 <CAM_LIVE>
    1392:	20 c0       	rjmp	.+64     	; 0x13d4 <parseCameraStatus+0x50>
	}
	else if (!(RX_buffer[1] & 0x01))
    1394:	80 fd       	sbrc	r24, 0
    1396:	04 c0       	rjmp	.+8      	; 0x13a0 <parseCameraStatus+0x1c>
	{
		CAM_LIVE = 1;
    1398:	81 e0       	ldi	r24, 0x01	; 1
    139a:	80 93 00 01 	sts	0x0100, r24	; 0x800100 <CAM_LIVE>
    139e:	1a c0       	rjmp	.+52     	; 0x13d4 <parseCameraStatus+0x50>
	}
	else if (!(RX_buffer[1] & 0x02))
	{
		CAM_LIVE = 2;
	}
	else if (!(RX_buffer[1] & 0x04))
    13a0:	82 fd       	sbrc	r24, 2
    13a2:	04 c0       	rjmp	.+8      	; 0x13ac <parseCameraStatus+0x28>
	{
		CAM_LIVE = 3;
    13a4:	83 e0       	ldi	r24, 0x03	; 3
    13a6:	80 93 00 01 	sts	0x0100, r24	; 0x800100 <CAM_LIVE>
    13aa:	14 c0       	rjmp	.+40     	; 0x13d4 <parseCameraStatus+0x50>
	}
	else if (!(RX_buffer[1] & 0x08))
    13ac:	83 fd       	sbrc	r24, 3
    13ae:	04 c0       	rjmp	.+8      	; 0x13b8 <parseCameraStatus+0x34>
	{
		CAM_LIVE = 4;
    13b0:	84 e0       	ldi	r24, 0x04	; 4
    13b2:	80 93 00 01 	sts	0x0100, r24	; 0x800100 <CAM_LIVE>
    13b6:	0e c0       	rjmp	.+28     	; 0x13d4 <parseCameraStatus+0x50>
	}
	else if (!(RX_buffer[1] & 0x10))
    13b8:	84 fd       	sbrc	r24, 4
    13ba:	04 c0       	rjmp	.+8      	; 0x13c4 <parseCameraStatus+0x40>
	{
		CAM_LIVE = 5;
    13bc:	85 e0       	ldi	r24, 0x05	; 5
    13be:	80 93 00 01 	sts	0x0100, r24	; 0x800100 <CAM_LIVE>
    13c2:	08 c0       	rjmp	.+16     	; 0x13d4 <parseCameraStatus+0x50>
	}
	else if (!(RX_buffer[1] & 0x20))
    13c4:	85 fd       	sbrc	r24, 5
    13c6:	04 c0       	rjmp	.+8      	; 0x13d0 <parseCameraStatus+0x4c>
	{
		CAM_LIVE = 6;
    13c8:	86 e0       	ldi	r24, 0x06	; 6
    13ca:	80 93 00 01 	sts	0x0100, r24	; 0x800100 <CAM_LIVE>
    13ce:	02 c0       	rjmp	.+4      	; 0x13d4 <parseCameraStatus+0x50>
	}
	else
	{
		CAM_LIVE = 0;
    13d0:	10 92 00 01 	sts	0x0100, r1	; 0x800100 <CAM_LIVE>
	}

	// Ako prve skontrolujem stav tejto kamery - READY rezim
	if (!(RX_buffer[2] & CAMERA_MASK))
    13d4:	80 91 3c 05 	lds	r24, 0x053C	; 0x80053c <RX_buffer+0x2>
    13d8:	81 fd       	sbrc	r24, 1
    13da:	04 c0       	rjmp	.+8      	; 0x13e4 <parseCameraStatus+0x60>
	{
		CAM_READY = CAMERA;
    13dc:	82 e0       	ldi	r24, 0x02	; 2
    13de:	80 93 01 01 	sts	0x0101, r24	; 0x800101 <CAM_READY>
    13e2:	08 95       	ret
	}
	else if (!(RX_buffer[2] & 0x01))
    13e4:	80 fd       	sbrc	r24, 0
    13e6:	04 c0       	rjmp	.+8      	; 0x13f0 <parseCameraStatus+0x6c>
	{
		CAM_READY = 1;
    13e8:	81 e0       	ldi	r24, 0x01	; 1
    13ea:	80 93 01 01 	sts	0x0101, r24	; 0x800101 <CAM_READY>
    13ee:	08 95       	ret
	}
	else if (!(RX_buffer[2] & 0x02))
	{
		CAM_READY = 2;
	}
	else if (!(RX_buffer[2] & 0x04))
    13f0:	82 fd       	sbrc	r24, 2
    13f2:	04 c0       	rjmp	.+8      	; 0x13fc <parseCameraStatus+0x78>
	{
		CAM_READY = 3;
    13f4:	83 e0       	ldi	r24, 0x03	; 3
    13f6:	80 93 01 01 	sts	0x0101, r24	; 0x800101 <CAM_READY>
    13fa:	08 95       	ret
	}
	else if (!(RX_buffer[2] & 0x08))
    13fc:	83 fd       	sbrc	r24, 3
    13fe:	04 c0       	rjmp	.+8      	; 0x1408 <parseCameraStatus+0x84>
	{
		CAM_READY = 4;
    1400:	84 e0       	ldi	r24, 0x04	; 4
    1402:	80 93 01 01 	sts	0x0101, r24	; 0x800101 <CAM_READY>
    1406:	08 95       	ret
	}
	else if (!(RX_buffer[2] & 0x10))
    1408:	84 fd       	sbrc	r24, 4
    140a:	04 c0       	rjmp	.+8      	; 0x1414 <parseCameraStatus+0x90>
	{
		CAM_READY = 5;
    140c:	85 e0       	ldi	r24, 0x05	; 5
    140e:	80 93 01 01 	sts	0x0101, r24	; 0x800101 <CAM_READY>
    1412:	08 95       	ret
	}
	else if (!(RX_buffer[2] & 0x20))
    1414:	85 fd       	sbrc	r24, 5
    1416:	04 c0       	rjmp	.+8      	; 0x1420 <parseCameraStatus+0x9c>
	{
		CAM_READY = 6;
    1418:	86 e0       	ldi	r24, 0x06	; 6
    141a:	80 93 01 01 	sts	0x0101, r24	; 0x800101 <CAM_READY>
    141e:	08 95       	ret
	}
	else
	{
		CAM_READY = 0;
    1420:	10 92 01 01 	sts	0x0101, r1	; 0x800101 <CAM_READY>
    1424:	08 95       	ret

00001426 <refresh_LED>:
}

void refresh_LED()
{
	//Kontrola, ci je kamera LIVE
	if (CAM_LIVE == CAMERA) //Aplikovanie masky pre zistenie stavu kamerz
    1426:	80 91 00 01 	lds	r24, 0x0100	; 0x800100 <CAM_LIVE>
    142a:	82 30       	cpi	r24, 0x02	; 2
    142c:	11 f4       	brne	.+4      	; 0x1432 <refresh_LED+0xc>
	{
		sbi(LED_PORT, R_LED); //Rozsvietenie cervenej LED
    142e:	5e 9a       	sbi	0x0b, 6	; 11
    1430:	08 95       	ret
	}
	else
	{
		cbi(LED_PORT, R_LED); //Zhsnutie cervenej LED
    1432:	5e 98       	cbi	0x0b, 6	; 11

		//Kontrola, ci je kamera READY
		if (CAM_READY == CAMERA)
    1434:	80 91 01 01 	lds	r24, 0x0101	; 0x800101 <CAM_READY>
    1438:	82 30       	cpi	r24, 0x02	; 2
    143a:	11 f4       	brne	.+4      	; 0x1440 <refresh_LED+0x1a>
		{
			sbi(LED_PORT, G_LED); //Rozsvietenie zelenej
    143c:	5b 9a       	sbi	0x0b, 3	; 11
    143e:	08 95       	ret
		}
		else
		{
			cbi(LED_PORT, G_LED); //Zhasnutie zelenej
    1440:	5b 98       	cbi	0x0b, 3	; 11
    1442:	08 95       	ret

00001444 <statusDisplay>:
	}
}

void statusDisplay()
{
	clear_display();
    1444:	0e 94 35 0c 	call	0x186a	; 0x186a <clear_display>
	printTallyNumber(CAM_LIVE, 0, 0); //Velke cislo pre kameru, ktora je von
    1448:	80 91 00 01 	lds	r24, 0x0100	; 0x800100 <CAM_LIVE>
    144c:	40 e0       	ldi	r20, 0x00	; 0
    144e:	50 e0       	ldi	r21, 0x00	; 0
    1450:	60 e0       	ldi	r22, 0x00	; 0
    1452:	70 e0       	ldi	r23, 0x00	; 0
    1454:	90 e0       	ldi	r25, 0x00	; 0
    1456:	0e 94 cc 0c 	call	0x1998	; 0x1998 <printTallyNumber>
	printBigNumber(CAM_READY, 0, 6);  //mensie cislo pre kameru, ktora je von
    145a:	80 91 01 01 	lds	r24, 0x0101	; 0x800101 <CAM_READY>
    145e:	46 e0       	ldi	r20, 0x06	; 6
    1460:	50 e0       	ldi	r21, 0x00	; 0
    1462:	60 e0       	ldi	r22, 0x00	; 0
    1464:	70 e0       	ldi	r23, 0x00	; 0
    1466:	90 e0       	ldi	r25, 0x00	; 0
    1468:	0e 94 48 0c 	call	0x1890	; 0x1890 <printBigNumber>
    146c:	08 95       	ret

0000146e <printPrepairedMessage>:
}

void printPrepairedMessage()
{
	messCamera(0);
    146e:	80 e0       	ldi	r24, 0x00	; 0
    1470:	90 e0       	ldi	r25, 0x00	; 0
    1472:	0e 94 45 0b 	call	0x168a	; 0x168a <messCamera>
    1476:	08 95       	ret

00001478 <printRecievedMessage>:
}

void printRecievedMessage()
{
    1478:	ef 92       	push	r14
    147a:	ff 92       	push	r15
    147c:	0f 93       	push	r16
    147e:	1f 93       	push	r17
    1480:	cf 93       	push	r28
    1482:	df 93       	push	r29
	displayOff();
    1484:	0e 94 0a 0c 	call	0x1814	; 0x1814 <displayOff>
	clear_display();
    1488:	0e 94 35 0c 	call	0x186a	; 0x186a <clear_display>

	uint8_t indexMess = 2;
	uint8_t posX = 0;

	setXY(posX, 0);
    148c:	60 e0       	ldi	r22, 0x00	; 0
    148e:	80 e0       	ldi	r24, 0x00	; 0
    1490:	0e 94 1e 0c 	call	0x183c	; 0x183c <setXY>
	while (RX_buffer[indexMess] != USART_END_CHAR)
    1494:	80 91 3c 05 	lds	r24, 0x053C	; 0x80053c <RX_buffer+0x2>
    1498:	81 36       	cpi	r24, 0x61	; 97
    149a:	71 f4       	brne	.+28     	; 0x14b8 <printRecievedMessage+0x40>
    149c:	24 c0       	rjmp	.+72     	; 0x14e6 <printRecievedMessage+0x6e>
	{
		if ((indexMess - 1) % 15 == 0)
    149e:	ce 01       	movw	r24, r28
    14a0:	01 97       	sbiw	r24, 0x01	; 1
    14a2:	b7 01       	movw	r22, r14
    14a4:	0e 94 31 0d 	call	0x1a62	; 0x1a62 <__divmodhi4>
    14a8:	89 2b       	or	r24, r25
    14aa:	79 f4       	brne	.+30     	; 0x14ca <printRecievedMessage+0x52>
		{
			posX++;
    14ac:	0f 5f       	subi	r16, 0xFF	; 255
			setXY(posX, 0);
    14ae:	60 e0       	ldi	r22, 0x00	; 0
    14b0:	80 2f       	mov	r24, r16
    14b2:	0e 94 1e 0c 	call	0x183c	; 0x183c <setXY>
    14b6:	09 c0       	rjmp	.+18     	; 0x14ca <printRecievedMessage+0x52>

	uint8_t indexMess = 2;
	uint8_t posX = 0;

	setXY(posX, 0);
	while (RX_buffer[indexMess] != USART_END_CHAR)
    14b8:	c2 e0       	ldi	r28, 0x02	; 2
    14ba:	d0 e0       	ldi	r29, 0x00	; 0
    14bc:	12 e0       	ldi	r17, 0x02	; 2
    14be:	00 e0       	ldi	r16, 0x00	; 0
	{
		if ((indexMess - 1) % 15 == 0)
    14c0:	0f 2e       	mov	r0, r31
    14c2:	ff e0       	ldi	r31, 0x0F	; 15
    14c4:	ef 2e       	mov	r14, r31
    14c6:	f1 2c       	mov	r15, r1
    14c8:	f0 2d       	mov	r31, r0
		{
			posX++;
			setXY(posX, 0);
		}

		sendCharTOMAS(RX_buffer[indexMess]);
    14ca:	c6 5c       	subi	r28, 0xC6	; 198
    14cc:	da 4f       	sbci	r29, 0xFA	; 250
    14ce:	88 81       	ld	r24, Y
    14d0:	0e 94 04 0d 	call	0x1a08	; 0x1a08 <sendCharTOMAS>

		indexMess++;
    14d4:	1f 5f       	subi	r17, 0xFF	; 255

	uint8_t indexMess = 2;
	uint8_t posX = 0;

	setXY(posX, 0);
	while (RX_buffer[indexMess] != USART_END_CHAR)
    14d6:	c1 2f       	mov	r28, r17
    14d8:	d0 e0       	ldi	r29, 0x00	; 0
    14da:	fe 01       	movw	r30, r28
    14dc:	e6 5c       	subi	r30, 0xC6	; 198
    14de:	fa 4f       	sbci	r31, 0xFA	; 250
    14e0:	80 81       	ld	r24, Z
    14e2:	81 36       	cpi	r24, 0x61	; 97
    14e4:	e1 f6       	brne	.-72     	; 0x149e <printRecievedMessage+0x26>
		sendCharTOMAS(RX_buffer[indexMess]);

		indexMess++;
	}

	displayOn();
    14e6:	0e 94 06 0c 	call	0x180c	; 0x180c <displayOn>
}
    14ea:	df 91       	pop	r29
    14ec:	cf 91       	pop	r28
    14ee:	1f 91       	pop	r17
    14f0:	0f 91       	pop	r16
    14f2:	ff 90       	pop	r15
    14f4:	ef 90       	pop	r14
    14f6:	08 95       	ret

000014f8 <sendReportAboutError>:

void sendReportAboutError()
{
	USART_send(ERROR);			//
    14f8:	8f ef       	ldi	r24, 0xFF	; 255
    14fa:	0e 94 b9 09 	call	0x1372	; 0x1372 <USART_send>
	USART_send(CAMERA);			//
    14fe:	82 e0       	ldi	r24, 0x02	; 2
    1500:	0e 94 b9 09 	call	0x1372	; 0x1372 <USART_send>
	USART_send(USART_END_CHAR); //
    1504:	81 e6       	ldi	r24, 0x61	; 97
    1506:	0e 94 b9 09 	call	0x1372	; 0x1372 <USART_send>
    150a:	08 95       	ret

0000150c <main>:
}

int main(void)
{
	setup_Display();
    150c:	0e 94 88 09 	call	0x1310	; 0x1310 <setup_Display>

	statusDisplay();
    1510:	0e 94 22 0a 	call	0x1444	; 0x1444 <statusDisplay>

	setup_LED();
    1514:	0e 94 75 09 	call	0x12ea	; 0x12ea <setup_LED>
	setup_USART();
    1518:	0e 94 95 09 	call	0x132a	; 0x132a <setup_USART>
	setup_T0_WD();
    151c:	0e 94 7c 09 	call	0x12f8	; 0x12f8 <setup_T0_WD>

	sei(); //Povoleni preruseni
    1520:	78 94       	sei
		{
			//ToDo - pekny efekt by bol, keby sa zoslabovala
			cbi(LED_PORT, R_LED);
			cbi(LED_PORT, G_LED);

			tbi(PORTB, B_LED);
    1522:	12 e0       	ldi	r17, 0x02	; 2
		{
			cbi(PORTB, B_LED); //vypnutie modej LED, pripad kekz sprava pride pocas svietenia

			if (new_msg == true)
			{
				switch (RX_buffer[0]) //Prvz znak spravz nesie priznak akz typ spravy je prenasany
    1524:	ca e3       	ldi	r28, 0x3A	; 58
    1526:	d5 e0       	ldi	r29, 0x05	; 5

	sei(); //Povoleni preruseni

	while (1)
	{
		if (watchdog == false)
    1528:	80 91 34 01 	lds	r24, 0x0134	; 0x800134 <__data_end>
    152c:	81 11       	cpse	r24, r1
    152e:	2a c0       	rjmp	.+84     	; 0x1584 <main+0x78>
		{
			cbi(PORTB, B_LED); //vypnutie modej LED, pripad kekz sprava pride pocas svietenia
    1530:	29 98       	cbi	0x05, 1	; 5

			if (new_msg == true)
    1532:	80 91 35 01 	lds	r24, 0x0135	; 0x800135 <new_msg>
    1536:	88 23       	and	r24, r24
    1538:	99 f1       	breq	.+102    	; 0x15a0 <main+0x94>
			{
				switch (RX_buffer[0]) //Prvz znak spravz nesie priznak akz typ spravy je prenasany
    153a:	88 81       	ld	r24, Y
    153c:	88 30       	cpi	r24, 0x08	; 8
    153e:	f9 f0       	breq	.+62     	; 0x157e <main+0x72>
    1540:	20 f4       	brcc	.+8      	; 0x154a <main+0x3e>
    1542:	81 50       	subi	r24, 0x01	; 1
    1544:	82 30       	cpi	r24, 0x02	; 2
    1546:	30 f0       	brcs	.+12     	; 0x1554 <main+0x48>
    1548:	18 c0       	rjmp	.+48     	; 0x157a <main+0x6e>
    154a:	81 34       	cpi	r24, 0x41	; 65
    154c:	51 f0       	breq	.+20     	; 0x1562 <main+0x56>
    154e:	86 34       	cpi	r24, 0x46	; 70
    1550:	71 f0       	breq	.+28     	; 0x156e <main+0x62>
    1552:	13 c0       	rjmp	.+38     	; 0x157a <main+0x6e>
				{
				//Refresh / Change - zmena stavu kamier
				case REFRESH:

				case CHANGED:
					parseCameraStatus();
    1554:	0e 94 c2 09 	call	0x1384	; 0x1384 <parseCameraStatus>
					statusDisplay();
    1558:	0e 94 22 0a 	call	0x1444	; 0x1444 <statusDisplay>
					refresh_LED(); //Nastavenie LED podla prijatych dat
    155c:	0e 94 13 0a 	call	0x1426	; 0x1426 <refresh_LED>
					break;
    1560:	0e c0       	rjmp	.+28     	; 0x157e <main+0x72>

				//Sprava s informaciou od rezie - predpripravena
				case MESSAGE_BASIC:
					if (RX_buffer[1] & CAMERA_MASK)
    1562:	89 81       	ldd	r24, Y+1	; 0x01
    1564:	81 ff       	sbrs	r24, 1
    1566:	0b c0       	rjmp	.+22     	; 0x157e <main+0x72>
					{
						printPrepairedMessage();
    1568:	0e 94 37 0a 	call	0x146e	; 0x146e <printPrepairedMessage>
    156c:	08 c0       	rjmp	.+16     	; 0x157e <main+0x72>

					break;

				//Sprava s informaciou od rezie - pisana
				case MESSAGE_ADVANCE:
					if (RX_buffer[1] & CAMERA_MASK)
    156e:	89 81       	ldd	r24, Y+1	; 0x01
    1570:	81 ff       	sbrs	r24, 1
    1572:	05 c0       	rjmp	.+10     	; 0x157e <main+0x72>
					{
						printRecievedMessage();
    1574:	0e 94 3c 0a 	call	0x1478	; 0x1478 <printRecievedMessage>
    1578:	02 c0       	rjmp	.+4      	; 0x157e <main+0x72>
				//Sprava s informaciou do rezie od kameramanov
				case RESPONSE:
					break;

				default:
					sendReportAboutError();
    157a:	0e 94 7c 0a 	call	0x14f8	; 0x14f8 <sendReportAboutError>
					break;
				}
				new_msg = false; //Nulovanie priznaku novej spravy
    157e:	10 92 35 01 	sts	0x0135, r1	; 0x800135 <new_msg>
    1582:	0e c0       	rjmp	.+28     	; 0x15a0 <main+0x94>
			}
		}
		else //V pripade ze Watchdog zaznamena chybu spusti sa blikanie modrej LED
		{
			//ToDo - pekny efekt by bol, keby sa zoslabovala
			cbi(LED_PORT, R_LED);
    1584:	5e 98       	cbi	0x0b, 6	; 11
			cbi(LED_PORT, G_LED);
    1586:	5b 98       	cbi	0x0b, 3	; 11

			tbi(PORTB, B_LED);
    1588:	85 b1       	in	r24, 0x05	; 5
    158a:	81 27       	eor	r24, r17
    158c:	85 b9       	out	0x05, r24	; 5
	#else
		//round up by default
		__ticks_dc = (uint32_t)(ceil(fabs(__tmp)));
	#endif

	__builtin_avr_delay_cycles(__ticks_dc);
    158e:	2f e3       	ldi	r18, 0x3F	; 63
    1590:	3e e7       	ldi	r19, 0x7E	; 126
    1592:	85 e0       	ldi	r24, 0x05	; 5
    1594:	21 50       	subi	r18, 0x01	; 1
    1596:	30 40       	sbci	r19, 0x00	; 0
    1598:	80 40       	sbci	r24, 0x00	; 0
    159a:	e1 f7       	brne	.-8      	; 0x1594 <main+0x88>
    159c:	00 c0       	rjmp	.+0      	; 0x159e <main+0x92>
    159e:	00 00       	nop
			_delay_ms(WATCHDOG_ERROR);
		}

		if (system_error == true) //V pripade neocakavaneho stavu zariadenia sa vyhlasi chynby stav bez moznosti navratu - nutny restart
    15a0:	80 91 36 01 	lds	r24, 0x0136	; 0x800136 <system_error>
    15a4:	88 23       	and	r24, r24
    15a6:	79 f0       	breq	.+30     	; 0x15c6 <main+0xba>
		{
			cli(); //Zakazanie preruseni
    15a8:	f8 94       	cli
			while (1)
			{
				tbi(LED_PORT, R_LED); // Blikanie Cervenej Farby
    15aa:	90 e4       	ldi	r25, 0x40	; 64
    15ac:	8b b1       	in	r24, 0x0b	; 11
    15ae:	89 27       	eor	r24, r25
    15b0:	8b b9       	out	0x0b, r24	; 11
    15b2:	2f ef       	ldi	r18, 0xFF	; 255
    15b4:	3e e9       	ldi	r19, 0x9E	; 158
    15b6:	84 e2       	ldi	r24, 0x24	; 36
    15b8:	21 50       	subi	r18, 0x01	; 1
    15ba:	30 40       	sbci	r19, 0x00	; 0
    15bc:	80 40       	sbci	r24, 0x00	; 0
    15be:	e1 f7       	brne	.-8      	; 0x15b8 <main+0xac>
    15c0:	00 c0       	rjmp	.+0      	; 0x15c2 <main+0xb6>
    15c2:	00 00       	nop
    15c4:	f3 cf       	rjmp	.-26     	; 0x15ac <main+0xa0>
    15c6:	9f e7       	ldi	r25, 0x7F	; 127
    15c8:	29 ea       	ldi	r18, 0xA9	; 169
    15ca:	33 e0       	ldi	r19, 0x03	; 3
    15cc:	91 50       	subi	r25, 0x01	; 1
    15ce:	20 40       	sbci	r18, 0x00	; 0
    15d0:	30 40       	sbci	r19, 0x00	; 0
    15d2:	e1 f7       	brne	.-8      	; 0x15cc <main+0xc0>
    15d4:	00 c0       	rjmp	.+0      	; 0x15d6 <main+0xca>
    15d6:	00 00       	nop
    15d8:	a7 cf       	rjmp	.-178    	; 0x1528 <main+0x1c>

000015da <__vector_18>:

/********************obsluhy preruseni****************/

//Ukladanie prichadzajucej spravy do zasobnika
ISR(USART_RX_vect)
{
    15da:	1f 92       	push	r1
    15dc:	0f 92       	push	r0
    15de:	0f b6       	in	r0, 0x3f	; 63
    15e0:	0f 92       	push	r0
    15e2:	11 24       	eor	r1, r1
    15e4:	8f 93       	push	r24
    15e6:	9f 93       	push	r25
    15e8:	ef 93       	push	r30
    15ea:	ff 93       	push	r31
	watchdog = false; // nulovanie chyboveho stavu dispeja
    15ec:	10 92 34 01 	sts	0x0134, r1	; 0x800134 <__data_end>
	timerx = 0;		  // restart casovaca - watchdog
    15f0:	10 92 39 05 	sts	0x0539, r1	; 0x800539 <timerx+0x1>
    15f4:	10 92 38 05 	sts	0x0538, r1	; 0x800538 <timerx>

	if (new_msg == false)
    15f8:	80 91 35 01 	lds	r24, 0x0135	; 0x800135 <new_msg>
    15fc:	81 11       	cpse	r24, r1
    15fe:	19 c0       	rjmp	.+50     	; 0x1632 <__vector_18+0x58>
	{
		RX_buffer[RX_index] = UDR0;
    1600:	80 91 37 01 	lds	r24, 0x0137	; 0x800137 <RX_index>
    1604:	90 91 c6 00 	lds	r25, 0x00C6	; 0x8000c6 <__TEXT_REGION_LENGTH__+0x7e00c6>
    1608:	e8 2f       	mov	r30, r24
    160a:	f0 e0       	ldi	r31, 0x00	; 0
    160c:	e6 5c       	subi	r30, 0xC6	; 198
    160e:	fa 4f       	sbci	r31, 0xFA	; 250
    1610:	90 83       	st	Z, r25
		//USART_send(RX_buffer [RX_index]);  //local echo

		if (RX_buffer[RX_index] == USART_END_CHAR) //Kontrola na koncovi znak spravy
    1612:	91 36       	cpi	r25, 0x61	; 97
    1614:	31 f4       	brne	.+12     	; 0x1622 <__vector_18+0x48>
		{
			new_msg = true;
    1616:	81 e0       	ldi	r24, 0x01	; 1
    1618:	80 93 35 01 	sts	0x0135, r24	; 0x800135 <new_msg>
			RX_index = 0;
    161c:	10 92 37 01 	sts	0x0137, r1	; 0x800137 <RX_index>
    1620:	08 c0       	rjmp	.+16     	; 0x1632 <__vector_18+0x58>
		}
		else
		{
			RX_index++;
    1622:	8f 5f       	subi	r24, 0xFF	; 255
    1624:	80 93 37 01 	sts	0x0137, r24	; 0x800137 <RX_index>

			if (RX_index >= USART_BUFFER) // kontrola na pretecenie zasobnika
    1628:	88 37       	cpi	r24, 0x78	; 120
    162a:	18 f0       	brcs	.+6      	; 0x1632 <__vector_18+0x58>
			{
				system_error = true;
    162c:	81 e0       	ldi	r24, 0x01	; 1
    162e:	80 93 36 01 	sts	0x0136, r24	; 0x800136 <system_error>
			}
		}
	}
}
    1632:	ff 91       	pop	r31
    1634:	ef 91       	pop	r30
    1636:	9f 91       	pop	r25
    1638:	8f 91       	pop	r24
    163a:	0f 90       	pop	r0
    163c:	0f be       	out	0x3f, r0	; 63
    163e:	0f 90       	pop	r0
    1640:	1f 90       	pop	r1
    1642:	18 95       	reti

00001644 <__vector_14>:

ISR(TIMER0_COMPA_vect)
{
    1644:	1f 92       	push	r1
    1646:	0f 92       	push	r0
    1648:	0f b6       	in	r0, 0x3f	; 63
    164a:	0f 92       	push	r0
    164c:	11 24       	eor	r1, r1
    164e:	2f 93       	push	r18
    1650:	8f 93       	push	r24
    1652:	9f 93       	push	r25
	timerx++;
    1654:	80 91 38 05 	lds	r24, 0x0538	; 0x800538 <timerx>
    1658:	90 91 39 05 	lds	r25, 0x0539	; 0x800539 <timerx+0x1>
    165c:	01 96       	adiw	r24, 0x01	; 1
    165e:	90 93 39 05 	sts	0x0539, r25	; 0x800539 <timerx+0x1>
    1662:	80 93 38 05 	sts	0x0538, r24	; 0x800538 <timerx>
	if (timerx > WATCHDOG_ISR_CNT)
    1666:	81 32       	cpi	r24, 0x21	; 33
    1668:	93 40       	sbci	r25, 0x03	; 3
    166a:	38 f0       	brcs	.+14     	; 0x167a <__vector_14+0x36>
	{
		watchdog = true;
    166c:	81 e0       	ldi	r24, 0x01	; 1
    166e:	80 93 34 01 	sts	0x0134, r24	; 0x800134 <__data_end>
		timerx = 0;
    1672:	10 92 39 05 	sts	0x0539, r1	; 0x800539 <timerx+0x1>
    1676:	10 92 38 05 	sts	0x0538, r1	; 0x800538 <timerx>
	}
    167a:	9f 91       	pop	r25
    167c:	8f 91       	pop	r24
    167e:	2f 91       	pop	r18
    1680:	0f 90       	pop	r0
    1682:	0f be       	out	0x3f, r0	; 63
    1684:	0f 90       	pop	r0
    1686:	1f 90       	pop	r1
    1688:	18 95       	reti

0000168a <messCamera>:

#include "printMessenge.h"
#include "ssd1306.h"

void messCamera(int typeOfError)
{
    168a:	cf 93       	push	r28
    168c:	df 93       	push	r29
    168e:	ec 01       	movw	r28, r24
	displayOff();
    1690:	0e 94 0a 0c 	call	0x1814	; 0x1814 <displayOff>
	clear_display();
    1694:	0e 94 35 0c 	call	0x186a	; 0x186a <clear_display>
	
	switch(typeOfError){
    1698:	c1 30       	cpi	r28, 0x01	; 1
    169a:	d1 05       	cpc	r29, r1
    169c:	71 f0       	breq	.+28     	; 0x16ba <messCamera+0x30>
    169e:	c3 30       	cpi	r28, 0x03	; 3
    16a0:	d1 05       	cpc	r29, r1
    16a2:	a1 f0       	breq	.+40     	; 0x16cc <messCamera+0x42>
    16a4:	cd 2b       	or	r28, r29
    16a6:	d9 f4       	brne	.+54     	; 0x16de <messCamera+0x54>
		case 0:
				setXY(1, 5);
    16a8:	65 e0       	ldi	r22, 0x05	; 5
    16aa:	81 e0       	ldi	r24, 0x01	; 1
    16ac:	0e 94 1e 0c 	call	0x183c	; 0x183c <setXY>
				sendStr("BLIKA");
    16b0:	83 e0       	ldi	r24, 0x03	; 3
    16b2:	91 e0       	ldi	r25, 0x01	; 1
    16b4:	0e 94 a0 0c 	call	0x1940	; 0x1940 <sendStr>
				break;
    16b8:	1a c0       	rjmp	.+52     	; 0x16ee <messCamera+0x64>
		case 1:
				setXY(1, 3);
    16ba:	63 e0       	ldi	r22, 0x03	; 3
    16bc:	81 e0       	ldi	r24, 0x01	; 1
    16be:	0e 94 1e 0c 	call	0x183c	; 0x183c <setXY>
				sendStr("NEZAOSTRUJE");
    16c2:	89 e0       	ldi	r24, 0x09	; 9
    16c4:	91 e0       	ldi	r25, 0x01	; 1
    16c6:	0e 94 a0 0c 	call	0x1940	; 0x1940 <sendStr>
				break;
    16ca:	11 c0       	rjmp	.+34     	; 0x16ee <messCamera+0x64>
		case 3:
				setXY(1, 2);
    16cc:	62 e0       	ldi	r22, 0x02	; 2
    16ce:	81 e0       	ldi	r24, 0x01	; 1
    16d0:	0e 94 1e 0c 	call	0x183c	; 0x183c <setXY>
				sendStr("PRIBLIZUJE");
    16d4:	85 e1       	ldi	r24, 0x15	; 21
    16d6:	91 e0       	ldi	r25, 0x01	; 1
    16d8:	0e 94 a0 0c 	call	0x1940	; 0x1940 <sendStr>
				break;
    16dc:	08 c0       	rjmp	.+16     	; 0x16ee <messCamera+0x64>
		default:
				setXY(1, 4);
    16de:	64 e0       	ldi	r22, 0x04	; 4
    16e0:	81 e0       	ldi	r24, 0x01	; 1
    16e2:	0e 94 1e 0c 	call	0x183c	; 0x183c <setXY>
				sendStr("NEFUNGUJE");
    16e6:	80 e2       	ldi	r24, 0x20	; 32
    16e8:	91 e0       	ldi	r25, 0x01	; 1
    16ea:	0e 94 a0 0c 	call	0x1940	; 0x1940 <sendStr>
				break;
	}
				
	setXY(3, 7);
    16ee:	67 e0       	ldi	r22, 0x07	; 7
    16f0:	83 e0       	ldi	r24, 0x03	; 3
    16f2:	0e 94 1e 0c 	call	0x183c	; 0x183c <setXY>
	sendStr("TI");
    16f6:	8a e2       	ldi	r24, 0x2A	; 42
    16f8:	91 e0       	ldi	r25, 0x01	; 1
    16fa:	0e 94 a0 0c 	call	0x1940	; 0x1940 <sendStr>
	setXY(5, 5);
    16fe:	65 e0       	ldi	r22, 0x05	; 5
    1700:	85 e0       	ldi	r24, 0x05	; 5
    1702:	0e 94 1e 0c 	call	0x183c	; 0x183c <setXY>
	sendStr("KAMERA");
    1706:	8d e2       	ldi	r24, 0x2D	; 45
    1708:	91 e0       	ldi	r25, 0x01	; 1
    170a:	0e 94 a0 0c 	call	0x1940	; 0x1940 <sendStr>
	
	displayOn();
    170e:	0e 94 06 0c 	call	0x180c	; 0x180c <displayOn>
}
    1712:	df 91       	pop	r29
    1714:	cf 91       	pop	r28
    1716:	08 95       	ret

00001718 <ssd1306_command>:
		{
			SendChar(pgm_read_byte(myFont[*string - 0x20] + i));
		}
		string++;
	}
}
    1718:	cf 93       	push	r28
    171a:	c8 2f       	mov	r28, r24
    171c:	80 91 02 01 	lds	r24, 0x0102	; 0x800102 <_i2c_address>
    1720:	0e 94 2f 09 	call	0x125e	; 0x125e <I2C_Start>
    1724:	80 e0       	ldi	r24, 0x00	; 0
    1726:	0e 94 55 09 	call	0x12aa	; 0x12aa <I2C_Write>
    172a:	8c 2f       	mov	r24, r28
    172c:	0e 94 55 09 	call	0x12aa	; 0x12aa <I2C_Write>
    1730:	0e 94 6c 09 	call	0x12d8	; 0x12d8 <I2C_Stop>
    1734:	cf 91       	pop	r28
    1736:	08 95       	ret

00001738 <InitializeDisplay>:
    1738:	5c 9a       	sbi	0x0b, 4	; 11
    173a:	54 9a       	sbi	0x0a, 4	; 10
    173c:	2f ef       	ldi	r18, 0xFF	; 255
    173e:	36 e7       	ldi	r19, 0x76	; 118
    1740:	81 e0       	ldi	r24, 0x01	; 1
    1742:	21 50       	subi	r18, 0x01	; 1
    1744:	30 40       	sbci	r19, 0x00	; 0
    1746:	80 40       	sbci	r24, 0x00	; 0
    1748:	e1 f7       	brne	.-8      	; 0x1742 <InitializeDisplay+0xa>
    174a:	00 c0       	rjmp	.+0      	; 0x174c <InitializeDisplay+0x14>
    174c:	00 00       	nop
    174e:	9b b1       	in	r25, 0x0b	; 11
    1750:	80 e1       	ldi	r24, 0x10	; 16
    1752:	98 27       	eor	r25, r24
    1754:	9b b9       	out	0x0b, r25	; 11
    1756:	9f ef       	ldi	r25, 0xFF	; 255
    1758:	26 e7       	ldi	r18, 0x76	; 118
    175a:	31 e0       	ldi	r19, 0x01	; 1
    175c:	91 50       	subi	r25, 0x01	; 1
    175e:	20 40       	sbci	r18, 0x00	; 0
    1760:	30 40       	sbci	r19, 0x00	; 0
    1762:	e1 f7       	brne	.-8      	; 0x175c <InitializeDisplay+0x24>
    1764:	00 c0       	rjmp	.+0      	; 0x1766 <InitializeDisplay+0x2e>
    1766:	00 00       	nop
    1768:	9b b1       	in	r25, 0x0b	; 11
    176a:	89 27       	eor	r24, r25
    176c:	8b b9       	out	0x0b, r24	; 11
    176e:	8f ef       	ldi	r24, 0xFF	; 255
    1770:	96 e7       	ldi	r25, 0x76	; 118
    1772:	21 e0       	ldi	r18, 0x01	; 1
    1774:	81 50       	subi	r24, 0x01	; 1
    1776:	90 40       	sbci	r25, 0x00	; 0
    1778:	20 40       	sbci	r18, 0x00	; 0
    177a:	e1 f7       	brne	.-8      	; 0x1774 <InitializeDisplay+0x3c>
    177c:	00 c0       	rjmp	.+0      	; 0x177e <InitializeDisplay+0x46>
    177e:	00 00       	nop
    1780:	8e ea       	ldi	r24, 0xAE	; 174
    1782:	0e 94 8c 0b 	call	0x1718	; 0x1718 <ssd1306_command>
    1786:	85 ed       	ldi	r24, 0xD5	; 213
    1788:	0e 94 8c 0b 	call	0x1718	; 0x1718 <ssd1306_command>
    178c:	80 e8       	ldi	r24, 0x80	; 128
    178e:	0e 94 8c 0b 	call	0x1718	; 0x1718 <ssd1306_command>
    1792:	88 ea       	ldi	r24, 0xA8	; 168
    1794:	0e 94 8c 0b 	call	0x1718	; 0x1718 <ssd1306_command>
    1798:	8f e3       	ldi	r24, 0x3F	; 63
    179a:	0e 94 8c 0b 	call	0x1718	; 0x1718 <ssd1306_command>
    179e:	83 ed       	ldi	r24, 0xD3	; 211
    17a0:	0e 94 8c 0b 	call	0x1718	; 0x1718 <ssd1306_command>
    17a4:	80 e0       	ldi	r24, 0x00	; 0
    17a6:	0e 94 8c 0b 	call	0x1718	; 0x1718 <ssd1306_command>
    17aa:	80 e4       	ldi	r24, 0x40	; 64
    17ac:	0e 94 8c 0b 	call	0x1718	; 0x1718 <ssd1306_command>
    17b0:	8d e8       	ldi	r24, 0x8D	; 141
    17b2:	0e 94 8c 0b 	call	0x1718	; 0x1718 <ssd1306_command>
    17b6:	84 e1       	ldi	r24, 0x14	; 20
    17b8:	0e 94 8c 0b 	call	0x1718	; 0x1718 <ssd1306_command>
    17bc:	81 ea       	ldi	r24, 0xA1	; 161
    17be:	0e 94 8c 0b 	call	0x1718	; 0x1718 <ssd1306_command>
    17c2:	88 ec       	ldi	r24, 0xC8	; 200
    17c4:	0e 94 8c 0b 	call	0x1718	; 0x1718 <ssd1306_command>
    17c8:	8a ed       	ldi	r24, 0xDA	; 218
    17ca:	0e 94 8c 0b 	call	0x1718	; 0x1718 <ssd1306_command>
    17ce:	82 e1       	ldi	r24, 0x12	; 18
    17d0:	0e 94 8c 0b 	call	0x1718	; 0x1718 <ssd1306_command>
    17d4:	81 e8       	ldi	r24, 0x81	; 129
    17d6:	0e 94 8c 0b 	call	0x1718	; 0x1718 <ssd1306_command>
    17da:	8f ec       	ldi	r24, 0xCF	; 207
    17dc:	0e 94 8c 0b 	call	0x1718	; 0x1718 <ssd1306_command>
    17e0:	89 ed       	ldi	r24, 0xD9	; 217
    17e2:	0e 94 8c 0b 	call	0x1718	; 0x1718 <ssd1306_command>
    17e6:	81 ef       	ldi	r24, 0xF1	; 241
    17e8:	0e 94 8c 0b 	call	0x1718	; 0x1718 <ssd1306_command>
    17ec:	8b ed       	ldi	r24, 0xDB	; 219
    17ee:	0e 94 8c 0b 	call	0x1718	; 0x1718 <ssd1306_command>
    17f2:	80 e4       	ldi	r24, 0x40	; 64
    17f4:	0e 94 8c 0b 	call	0x1718	; 0x1718 <ssd1306_command>
    17f8:	84 ea       	ldi	r24, 0xA4	; 164
    17fa:	0e 94 8c 0b 	call	0x1718	; 0x1718 <ssd1306_command>
    17fe:	86 ea       	ldi	r24, 0xA6	; 166
    1800:	0e 94 8c 0b 	call	0x1718	; 0x1718 <ssd1306_command>
    1804:	8f ea       	ldi	r24, 0xAF	; 175
    1806:	0e 94 8c 0b 	call	0x1718	; 0x1718 <ssd1306_command>
    180a:	08 95       	ret

0000180c <displayOn>:
    180c:	8f ea       	ldi	r24, 0xAF	; 175
    180e:	0e 94 8c 0b 	call	0x1718	; 0x1718 <ssd1306_command>
    1812:	08 95       	ret

00001814 <displayOff>:
    1814:	8e ea       	ldi	r24, 0xAE	; 174
    1816:	0e 94 8c 0b 	call	0x1718	; 0x1718 <ssd1306_command>
    181a:	08 95       	ret

0000181c <SendChar>:
    181c:	cf 93       	push	r28
    181e:	c8 2f       	mov	r28, r24
    1820:	80 91 02 01 	lds	r24, 0x0102	; 0x800102 <_i2c_address>
    1824:	0e 94 2f 09 	call	0x125e	; 0x125e <I2C_Start>
    1828:	80 e4       	ldi	r24, 0x40	; 64
    182a:	0e 94 55 09 	call	0x12aa	; 0x12aa <I2C_Write>
    182e:	8c 2f       	mov	r24, r28
    1830:	0e 94 55 09 	call	0x12aa	; 0x12aa <I2C_Write>
    1834:	0e 94 6c 09 	call	0x12d8	; 0x12d8 <I2C_Stop>
    1838:	cf 91       	pop	r28
    183a:	08 95       	ret

0000183c <setXY>:
    183c:	cf 93       	push	r28
    183e:	c6 2f       	mov	r28, r22
    1840:	80 55       	subi	r24, 0x50	; 80
    1842:	0e 94 8c 0b 	call	0x1718	; 0x1718 <ssd1306_command>
    1846:	8c 2f       	mov	r24, r28
    1848:	88 0f       	add	r24, r24
    184a:	88 0f       	add	r24, r24
    184c:	88 0f       	add	r24, r24
    184e:	88 70       	andi	r24, 0x08	; 8
    1850:	8e 5f       	subi	r24, 0xFE	; 254
    1852:	0e 94 8c 0b 	call	0x1718	; 0x1718 <ssd1306_command>
    1856:	8c 2f       	mov	r24, r28
    1858:	90 e0       	ldi	r25, 0x00	; 0
    185a:	96 95       	lsr	r25
    185c:	87 95       	ror	r24
    185e:	8f 70       	andi	r24, 0x0F	; 15
    1860:	80 5f       	subi	r24, 0xF0	; 240
    1862:	0e 94 8c 0b 	call	0x1718	; 0x1718 <ssd1306_command>
    1866:	cf 91       	pop	r28
    1868:	08 95       	ret

0000186a <clear_display>:
    186a:	cf 93       	push	r28
    186c:	df 93       	push	r29
    186e:	d0 e0       	ldi	r29, 0x00	; 0
    1870:	60 e0       	ldi	r22, 0x00	; 0
    1872:	8d 2f       	mov	r24, r29
    1874:	0e 94 1e 0c 	call	0x183c	; 0x183c <setXY>
    1878:	c1 e8       	ldi	r28, 0x81	; 129
    187a:	80 e0       	ldi	r24, 0x00	; 0
    187c:	0e 94 0e 0c 	call	0x181c	; 0x181c <SendChar>
    1880:	c1 50       	subi	r28, 0x01	; 1
    1882:	d9 f7       	brne	.-10     	; 0x187a <clear_display+0x10>
    1884:	df 5f       	subi	r29, 0xFF	; 255
    1886:	d8 30       	cpi	r29, 0x08	; 8
    1888:	99 f7       	brne	.-26     	; 0x1870 <clear_display+0x6>
    188a:	df 91       	pop	r29
    188c:	cf 91       	pop	r28
    188e:	08 95       	ret

00001890 <printBigNumber>:
    1890:	7f 92       	push	r7
    1892:	8f 92       	push	r8
    1894:	9f 92       	push	r9
    1896:	af 92       	push	r10
    1898:	bf 92       	push	r11
    189a:	cf 92       	push	r12
    189c:	df 92       	push	r13
    189e:	ef 92       	push	r14
    18a0:	ff 92       	push	r15
    18a2:	0f 93       	push	r16
    18a4:	1f 93       	push	r17
    18a6:	cf 93       	push	r28
    18a8:	df 93       	push	r29
    18aa:	7c 01       	movw	r14, r24
    18ac:	4b 01       	movw	r8, r22
    18ae:	74 2e       	mov	r7, r20
    18b0:	64 2f       	mov	r22, r20
    18b2:	88 2d       	mov	r24, r8
    18b4:	0e 94 1e 0c 	call	0x183c	; 0x183c <setXY>
    18b8:	c8 ea       	ldi	r28, 0xA8	; 168
    18ba:	d1 e1       	ldi	r29, 0x11	; 17
    18bc:	0f 2e       	mov	r0, r31
    18be:	f8 e0       	ldi	r31, 0x08	; 8
    18c0:	cf 2e       	mov	r12, r31
    18c2:	f2 e1       	ldi	r31, 0x12	; 18
    18c4:	df 2e       	mov	r13, r31
    18c6:	f0 2d       	mov	r31, r0
    18c8:	80 e6       	ldi	r24, 0x60	; 96
    18ca:	8e 9d       	mul	r24, r14
    18cc:	50 01       	movw	r10, r0
    18ce:	8f 9d       	mul	r24, r15
    18d0:	b0 0c       	add	r11, r0
    18d2:	11 24       	eor	r1, r1
    18d4:	00 e0       	ldi	r16, 0x00	; 0
    18d6:	10 e0       	ldi	r17, 0x00	; 0
    18d8:	80 ec       	ldi	r24, 0xC0	; 192
    18da:	a8 1a       	sub	r10, r24
    18dc:	83 e0       	ldi	r24, 0x03	; 3
    18de:	b8 0a       	sbc	r11, r24
    18e0:	ea e0       	ldi	r30, 0x0A	; 10
    18e2:	ee 16       	cp	r14, r30
    18e4:	f1 04       	cpc	r15, r1
    18e6:	2c f0       	brlt	.+10     	; 0x18f2 <printBigNumber+0x62>
    18e8:	fe 01       	movw	r30, r28
    18ea:	84 91       	lpm	r24, Z
    18ec:	0e 94 0e 0c 	call	0x181c	; 0x181c <SendChar>
    18f0:	06 c0       	rjmp	.+12     	; 0x18fe <printBigNumber+0x6e>
    18f2:	f5 01       	movw	r30, r10
    18f4:	ec 0f       	add	r30, r28
    18f6:	fd 1f       	adc	r31, r29
    18f8:	84 91       	lpm	r24, Z
    18fa:	0e 94 0e 0c 	call	0x181c	; 0x181c <SendChar>
    18fe:	07 31       	cpi	r16, 0x17	; 23
    1900:	11 05       	cpc	r17, r1
    1902:	51 f4       	brne	.+20     	; 0x1918 <printBigNumber+0x88>
    1904:	ff ef       	ldi	r31, 0xFF	; 255
    1906:	8f 1a       	sub	r8, r31
    1908:	9f 0a       	sbc	r9, r31
    190a:	67 2d       	mov	r22, r7
    190c:	88 2d       	mov	r24, r8
    190e:	0e 94 1e 0c 	call	0x183c	; 0x183c <setXY>
    1912:	00 e0       	ldi	r16, 0x00	; 0
    1914:	10 e0       	ldi	r17, 0x00	; 0
    1916:	02 c0       	rjmp	.+4      	; 0x191c <printBigNumber+0x8c>
    1918:	0f 5f       	subi	r16, 0xFF	; 255
    191a:	1f 4f       	sbci	r17, 0xFF	; 255
    191c:	21 96       	adiw	r28, 0x01	; 1
    191e:	cc 15       	cp	r28, r12
    1920:	dd 05       	cpc	r29, r13
    1922:	f1 f6       	brne	.-68     	; 0x18e0 <printBigNumber+0x50>
    1924:	df 91       	pop	r29
    1926:	cf 91       	pop	r28
    1928:	1f 91       	pop	r17
    192a:	0f 91       	pop	r16
    192c:	ff 90       	pop	r15
    192e:	ef 90       	pop	r14
    1930:	df 90       	pop	r13
    1932:	cf 90       	pop	r12
    1934:	bf 90       	pop	r11
    1936:	af 90       	pop	r10
    1938:	9f 90       	pop	r9
    193a:	8f 90       	pop	r8
    193c:	7f 90       	pop	r7
    193e:	08 95       	ret

00001940 <sendStr>:
    1940:	0f 93       	push	r16
    1942:	1f 93       	push	r17
    1944:	cf 93       	push	r28
    1946:	df 93       	push	r29
    1948:	8c 01       	movw	r16, r24
    194a:	dc 01       	movw	r26, r24
    194c:	8c 91       	ld	r24, X
    194e:	81 11       	cpse	r24, r1
    1950:	1b c0       	rjmp	.+54     	; 0x1988 <sendStr+0x48>
    1952:	1d c0       	rjmp	.+58     	; 0x198e <sendStr+0x4e>
    1954:	d8 01       	movw	r26, r16
    1956:	ec 91       	ld	r30, X
    1958:	f0 e0       	ldi	r31, 0x00	; 0
    195a:	ee 0f       	add	r30, r30
    195c:	ff 1f       	adc	r31, r31
    195e:	ee 0f       	add	r30, r30
    1960:	ff 1f       	adc	r31, r31
    1962:	ee 0f       	add	r30, r30
    1964:	ff 1f       	adc	r31, r31
    1966:	e8 51       	subi	r30, 0x18	; 24
    1968:	f6 4f       	sbci	r31, 0xF6	; 246
    196a:	ec 0f       	add	r30, r28
    196c:	fd 1f       	adc	r31, r29
    196e:	84 91       	lpm	r24, Z
    1970:	0e 94 0e 0c 	call	0x181c	; 0x181c <SendChar>
    1974:	21 96       	adiw	r28, 0x01	; 1
    1976:	c8 30       	cpi	r28, 0x08	; 8
    1978:	d1 05       	cpc	r29, r1
    197a:	61 f7       	brne	.-40     	; 0x1954 <sendStr+0x14>
    197c:	0f 5f       	subi	r16, 0xFF	; 255
    197e:	1f 4f       	sbci	r17, 0xFF	; 255
    1980:	f8 01       	movw	r30, r16
    1982:	80 81       	ld	r24, Z
    1984:	88 23       	and	r24, r24
    1986:	19 f0       	breq	.+6      	; 0x198e <sendStr+0x4e>
    1988:	c0 e0       	ldi	r28, 0x00	; 0
    198a:	d0 e0       	ldi	r29, 0x00	; 0
    198c:	e3 cf       	rjmp	.-58     	; 0x1954 <sendStr+0x14>
    198e:	df 91       	pop	r29
    1990:	cf 91       	pop	r28
    1992:	1f 91       	pop	r17
    1994:	0f 91       	pop	r16
    1996:	08 95       	ret

00001998 <printTallyNumber>:


//Metoda vysviecujuca velke Tally cisla - 42 x 64
void printTallyNumber(int camera, int X, int Y)
{
    1998:	df 92       	push	r13
    199a:	ef 92       	push	r14
    199c:	ff 92       	push	r15
    199e:	0f 93       	push	r16
    19a0:	1f 93       	push	r17
    19a2:	cf 93       	push	r28
    19a4:	df 93       	push	r29
    19a6:	d4 2e       	mov	r13, r20
	int cam_print = camera;
	if(camera > 6)
    19a8:	87 30       	cpi	r24, 0x07	; 7
    19aa:	91 05       	cpc	r25, r1
    19ac:	14 f0       	brlt	.+4      	; 0x19b2 <printTallyNumber+0x1a>
	{
		cam_print = 7;
    19ae:	87 e0       	ldi	r24, 0x07	; 7
    19b0:	90 e0       	ldi	r25, 0x00	; 0
    19b2:	f6 2e       	mov	r15, r22
    19b4:	20 e5       	ldi	r18, 0x50	; 80
    19b6:	31 e0       	ldi	r19, 0x01	; 1
    19b8:	82 9f       	mul	r24, r18
    19ba:	e0 01       	movw	r28, r0
    19bc:	83 9f       	mul	r24, r19
    19be:	d0 0d       	add	r29, r0
    19c0:	92 9f       	mul	r25, r18
    19c2:	d0 0d       	add	r29, r0
    19c4:	11 24       	eor	r1, r1
    19c6:	c8 59       	subi	r28, 0x98	; 152
    19c8:	df 4f       	sbci	r29, 0xFF	; 255
    19ca:	68 94       	set
    19cc:	ee 24       	eor	r14, r14
    19ce:	e3 f8       	bld	r14, 3
    19d0:	e6 0e       	add	r14, r22
	}
	for (int j = 0; j < 8; j++)
	{
		setXY(X, Y);
    19d2:	6d 2d       	mov	r22, r13
    19d4:	8f 2d       	mov	r24, r15
    19d6:	0e 94 1e 0c 	call	0x183c	; 0x183c <setXY>
    19da:	8e 01       	movw	r16, r28
    19dc:	06 5d       	subi	r16, 0xD6	; 214
    19de:	1f 4f       	sbci	r17, 0xFF	; 255
		for (int i = 0; i < wightTallyFont; i++)
		{
			SendChar(pgm_read_byte(tallyNumbers[cam_print] + (i + j * wightTallyFont)));
    19e0:	fe 01       	movw	r30, r28
    19e2:	84 91       	lpm	r24, Z
    19e4:	0e 94 0e 0c 	call	0x181c	; 0x181c <SendChar>
    19e8:	21 96       	adiw	r28, 0x01	; 1
		cam_print = 7;
	}
	for (int j = 0; j < 8; j++)
	{
		setXY(X, Y);
		for (int i = 0; i < wightTallyFont; i++)
    19ea:	c0 17       	cp	r28, r16
    19ec:	d1 07       	cpc	r29, r17
    19ee:	c1 f7       	brne	.-16     	; 0x19e0 <printTallyNumber+0x48>
    19f0:	f3 94       	inc	r15
    19f2:	e8 01       	movw	r28, r16
	int cam_print = camera;
	if(camera > 6)
	{
		cam_print = 7;
	}
	for (int j = 0; j < 8; j++)
    19f4:	fe 10       	cpse	r15, r14
    19f6:	ed cf       	rjmp	.-38     	; 0x19d2 <printTallyNumber+0x3a>
		{
			SendChar(pgm_read_byte(tallyNumbers[cam_print] + (i + j * wightTallyFont)));
		}
		X++;
	}
}
    19f8:	df 91       	pop	r29
    19fa:	cf 91       	pop	r28
    19fc:	1f 91       	pop	r17
    19fe:	0f 91       	pop	r16
    1a00:	ff 90       	pop	r15
    1a02:	ef 90       	pop	r14
    1a04:	df 90       	pop	r13
    1a06:	08 95       	ret

00001a08 <sendCharTOMAS>:

void sendCharTOMAS(unsigned char data)
{
    1a08:	0f 93       	push	r16
    1a0a:	1f 93       	push	r17
    1a0c:	cf 93       	push	r28
    1a0e:	df 93       	push	r29
    1a10:	08 2f       	mov	r16, r24
	I2C_Start(_i2c_address); // begin transmitting
    1a12:	80 91 02 01 	lds	r24, 0x0102	; 0x800102 <_i2c_address>
    1a16:	0e 94 2f 09 	call	0x125e	; 0x125e <I2C_Start>
	I2C_Write(0x40);		 //data mode
    1a1a:	80 e4       	ldi	r24, 0x40	; 64
    1a1c:	0e 94 55 09 	call	0x12aa	; 0x12aa <I2C_Write>
    1a20:	10 e0       	ldi	r17, 0x00	; 0
    1a22:	e8 01       	movw	r28, r16
    1a24:	cc 0f       	add	r28, r28
    1a26:	dd 1f       	adc	r29, r29
    1a28:	cc 0f       	add	r28, r28
    1a2a:	dd 1f       	adc	r29, r29
    1a2c:	cc 0f       	add	r28, r28
    1a2e:	dd 1f       	adc	r29, r29
    1a30:	c8 51       	subi	r28, 0x18	; 24
    1a32:	d6 4f       	sbci	r29, 0xF6	; 246
    1a34:	00 0f       	add	r16, r16
    1a36:	11 1f       	adc	r17, r17
    1a38:	00 0f       	add	r16, r16
    1a3a:	11 1f       	adc	r17, r17
    1a3c:	00 0f       	add	r16, r16
    1a3e:	11 1f       	adc	r17, r17
    1a40:	00 51       	subi	r16, 0x10	; 16
    1a42:	16 4f       	sbci	r17, 0xF6	; 246

	for (int i = 0; i < 8; i++)
		I2C_Write(pgm_read_byte(myFont[data - 0x20] + i));
    1a44:	fe 01       	movw	r30, r28
    1a46:	84 91       	lpm	r24, Z
    1a48:	0e 94 55 09 	call	0x12aa	; 0x12aa <I2C_Write>
    1a4c:	21 96       	adiw	r28, 0x01	; 1
void sendCharTOMAS(unsigned char data)
{
	I2C_Start(_i2c_address); // begin transmitting
	I2C_Write(0x40);		 //data mode

	for (int i = 0; i < 8; i++)
    1a4e:	c0 17       	cp	r28, r16
    1a50:	d1 07       	cpc	r29, r17
    1a52:	c1 f7       	brne	.-16     	; 0x1a44 <sendCharTOMAS+0x3c>
		I2C_Write(pgm_read_byte(myFont[data - 0x20] + i));

	I2C_Stop(); // stop transmitting
    1a54:	0e 94 6c 09 	call	0x12d8	; 0x12d8 <I2C_Stop>
    1a58:	df 91       	pop	r29
    1a5a:	cf 91       	pop	r28
    1a5c:	1f 91       	pop	r17
    1a5e:	0f 91       	pop	r16
    1a60:	08 95       	ret

00001a62 <__divmodhi4>:
    1a62:	97 fb       	bst	r25, 7
    1a64:	07 2e       	mov	r0, r23
    1a66:	16 f4       	brtc	.+4      	; 0x1a6c <__divmodhi4+0xa>
    1a68:	00 94       	com	r0
    1a6a:	07 d0       	rcall	.+14     	; 0x1a7a <__divmodhi4_neg1>
    1a6c:	77 fd       	sbrc	r23, 7
    1a6e:	09 d0       	rcall	.+18     	; 0x1a82 <__divmodhi4_neg2>
    1a70:	0e 94 45 0d 	call	0x1a8a	; 0x1a8a <__udivmodhi4>
    1a74:	07 fc       	sbrc	r0, 7
    1a76:	05 d0       	rcall	.+10     	; 0x1a82 <__divmodhi4_neg2>
    1a78:	3e f4       	brtc	.+14     	; 0x1a88 <__divmodhi4_exit>

00001a7a <__divmodhi4_neg1>:
    1a7a:	90 95       	com	r25
    1a7c:	81 95       	neg	r24
    1a7e:	9f 4f       	sbci	r25, 0xFF	; 255
    1a80:	08 95       	ret

00001a82 <__divmodhi4_neg2>:
    1a82:	70 95       	com	r23
    1a84:	61 95       	neg	r22
    1a86:	7f 4f       	sbci	r23, 0xFF	; 255

00001a88 <__divmodhi4_exit>:
    1a88:	08 95       	ret

00001a8a <__udivmodhi4>:
    1a8a:	aa 1b       	sub	r26, r26
    1a8c:	bb 1b       	sub	r27, r27
    1a8e:	51 e1       	ldi	r21, 0x11	; 17
    1a90:	07 c0       	rjmp	.+14     	; 0x1aa0 <__udivmodhi4_ep>

00001a92 <__udivmodhi4_loop>:
    1a92:	aa 1f       	adc	r26, r26
    1a94:	bb 1f       	adc	r27, r27
    1a96:	a6 17       	cp	r26, r22
    1a98:	b7 07       	cpc	r27, r23
    1a9a:	10 f0       	brcs	.+4      	; 0x1aa0 <__udivmodhi4_ep>
    1a9c:	a6 1b       	sub	r26, r22
    1a9e:	b7 0b       	sbc	r27, r23

00001aa0 <__udivmodhi4_ep>:
    1aa0:	88 1f       	adc	r24, r24
    1aa2:	99 1f       	adc	r25, r25
    1aa4:	5a 95       	dec	r21
    1aa6:	a9 f7       	brne	.-22     	; 0x1a92 <__udivmodhi4_loop>
    1aa8:	80 95       	com	r24
    1aaa:	90 95       	com	r25
    1aac:	bc 01       	movw	r22, r24
    1aae:	cd 01       	movw	r24, r26
    1ab0:	08 95       	ret

00001ab2 <_exit>:
    1ab2:	f8 94       	cli

00001ab4 <__stop_program>:
    1ab4:	ff cf       	rjmp	.-2      	; 0x1ab4 <__stop_program>
